TI ARM Assembler PC v15.12.1 Wed Nov 30 14:37:43 2016

Tools Copyright (c) 1996-2015 Texas Instruments Incorporated
port.asm                                                             PAGE    1

       1                    ;******************************************************************************
       2                    ;* TI ARM C/C++ Codegen                                       PC v15.12.1.LTS *
       3                    ;* Date/Time created: Wed Nov 30 14:37:43 2016                                *
       4                    ;******************************************************************************
       5                            .compiler_opts --abi=eabi --arm_vmrs_si_workaround=off --code_state=16 --diag_wrap=off --disab
       6 00000000                   .thumb
       7                    
       8                    $C$DW$CU        .dwtag  DW_TAG_compile_unit
       9                            .dwattr $C$DW$CU, DW_AT_name("../Source/portable/CCS/ARM_CM3/port.c")
      10                            .dwattr $C$DW$CU, DW_AT_producer("TI TI ARM C/C++ Codegen PC v15.12.1.LTS Copyright (c) 1996-2
      11                            .dwattr $C$DW$CU, DW_AT_TI_version(0x01)
      12                            .dwattr $C$DW$CU, DW_AT_comp_dir("H:\EECS_388\TI_ARM_Projects\FreeRTOS823_LM3S1968_ASM\Debug")
      13                    
      14                    $C$DW$1 .dwtag  DW_TAG_subprogram
      15                            .dwattr $C$DW$1, DW_AT_name("ulPortSetInterruptMask")
      16                            .dwattr $C$DW$1, DW_AT_TI_symbol_name("ulPortSetInterruptMask")
      17                            .dwattr $C$DW$1, DW_AT_type(*$C$DW$T$13)
      18                            .dwattr $C$DW$1, DW_AT_declaration
      19                            .dwattr $C$DW$1, DW_AT_external
      20                            .dwattr $C$DW$1, DW_AT_decl_file("H:/EECS_388/TI_ARM_Projects/FreeRTOS823_LM3S1968_ASM/Source/
      21                            .dwattr $C$DW$1, DW_AT_decl_line(0xa1)
      22                            .dwattr $C$DW$1, DW_AT_decl_column(0x16)
      23                            .dwendtag $C$DW$1
      24                    
      25                    
      26                    $C$DW$2 .dwtag  DW_TAG_subprogram
      27                            .dwattr $C$DW$2, DW_AT_name("vPortClearInterruptMask")
      28                            .dwattr $C$DW$2, DW_AT_TI_symbol_name("vPortClearInterruptMask")
      29                            .dwattr $C$DW$2, DW_AT_declaration
      30                            .dwattr $C$DW$2, DW_AT_external
      31                            .dwattr $C$DW$2, DW_AT_decl_file("H:/EECS_388/TI_ARM_Projects/FreeRTOS823_LM3S1968_ASM/Source/
      32                            .dwattr $C$DW$2, DW_AT_decl_line(0xa2)
      33                            .dwattr $C$DW$2, DW_AT_decl_column(0x0d)
      34                    $C$DW$3 .dwtag  DW_TAG_formal_parameter
      35                            .dwattr $C$DW$3, DW_AT_type(*$C$DW$T$13)
      36                    
      37                            .dwendtag $C$DW$2
      38                    
      39                    
      40                    $C$DW$4 .dwtag  DW_TAG_subprogram
      41                            .dwattr $C$DW$4, DW_AT_name("xTaskIncrementTick")
      42                            .dwattr $C$DW$4, DW_AT_TI_symbol_name("xTaskIncrementTick")
      43                            .dwattr $C$DW$4, DW_AT_type(*$C$DW$T$53)
      44                            .dwattr $C$DW$4, DW_AT_declaration
      45                            .dwattr $C$DW$4, DW_AT_external
      46                            .dwattr $C$DW$4, DW_AT_decl_file("H:/EECS_388/TI_ARM_Projects/FreeRTOS823_LM3S1968_ASM/Source/
      47                            .dwattr $C$DW$4, DW_AT_decl_line(0x73a)
      48                            .dwattr $C$DW$4, DW_AT_decl_column(0x0c)
      49                            .dwendtag $C$DW$4
      50                    
      51                    
      52                    $C$DW$5 .dwtag  DW_TAG_subprogram
      53                            .dwattr $C$DW$5, DW_AT_name("vPortStartFirstTask")
      54                            .dwattr $C$DW$5, DW_AT_TI_symbol_name("vPortStartFirstTask")
      55                            .dwattr $C$DW$5, DW_AT_declaration
TI ARM Assembler PC v15.12.1 Wed Nov 30 14:37:43 2016

Tools Copyright (c) 1996-2015 Texas Instruments Incorporated
port.asm                                                             PAGE    2

      56                            .dwattr $C$DW$5, DW_AT_external
      57                            .dwattr $C$DW$5, DW_AT_decl_file("../Source/portable/CCS/ARM_CM3/port.c")
      58                            .dwattr $C$DW$5, DW_AT_decl_line(0x8d)
      59                            .dwattr $C$DW$5, DW_AT_decl_column(0x0d)
      60                            .dwendtag $C$DW$5
      61                    
      62 00000000                   .data
      63                            .align  4
      64                            .elfsym uxCriticalNesting,SYM_SIZE(4)
      65 00000000           uxCriticalNesting:
      66 00000000 AAAAAAAA          .bits   -1431655766,32                  ; uxCriticalNesting @ 0
      67                    
      68                    $C$DW$6 .dwtag  DW_TAG_variable
      69                            .dwattr $C$DW$6, DW_AT_name("uxCriticalNesting")
      70                            .dwattr $C$DW$6, DW_AT_TI_symbol_name("uxCriticalNesting")
      71                            .dwattr $C$DW$6, DW_AT_type(*$C$DW$T$82)
      72                            .dwattr $C$DW$6, DW_AT_location[DW_OP_addr uxCriticalNesting]
      73                            .dwattr $C$DW$6, DW_AT_decl_file("../Source/portable/CCS/ARM_CM3/port.c")
      74                            .dwattr $C$DW$6, DW_AT_decl_line(0x7c)
      75                            .dwattr $C$DW$6, DW_AT_decl_column(0x16)
      76                    
      77                            .global xPortSysTickCount
      78 00000004                   .data
      79                            .align  4
      80                            .elfsym xPortSysTickCount,SYM_SIZE(4)
      81 00000004           xPortSysTickCount:
      82 00000004 00000000          .bits   0,32                    ; xPortSysTickCount @ 0
      83                    
      84                    $C$DW$7 .dwtag  DW_TAG_variable
      85                            .dwattr $C$DW$7, DW_AT_name("xPortSysTickCount")
      86                            .dwattr $C$DW$7, DW_AT_TI_symbol_name("xPortSysTickCount")
      87                            .dwattr $C$DW$7, DW_AT_location[DW_OP_addr xPortSysTickCount]
      88                            .dwattr $C$DW$7, DW_AT_type(*$C$DW$T$12)
      89                            .dwattr $C$DW$7, DW_AT_external
      90                            .dwattr $C$DW$7, DW_AT_decl_file("../Source/portable/CCS/ARM_CM3/port.c")
      91                            .dwattr $C$DW$7, DW_AT_decl_line(0xf7)
      92                            .dwattr $C$DW$7, DW_AT_decl_column(0x11)
      93                    
      94                    ;       C:\TI_CodeComposer\ccsv6\tools\compiler\ti-cgt-arm_15.12.1.LTS\bin\armacpia.exe -@C:\\Users\\a
      95 00000000                   .sect   ".text"
      96                            .clink
      97                            .thumbfunc pxPortInitialiseStack
      98 00000000                   .thumb
      99                            .global pxPortInitialiseStack
     100                    
     101                    $C$DW$8 .dwtag  DW_TAG_subprogram
     102                            .dwattr $C$DW$8, DW_AT_name("pxPortInitialiseStack")
     103                            .dwattr $C$DW$8, DW_AT_low_pc(pxPortInitialiseStack)
     104                            .dwattr $C$DW$8, DW_AT_high_pc(0x00)
     105                            .dwattr $C$DW$8, DW_AT_TI_symbol_name("pxPortInitialiseStack")
     106                            .dwattr $C$DW$8, DW_AT_external
     107                            .dwattr $C$DW$8, DW_AT_type(*$C$DW$T$88)
     108                            .dwattr $C$DW$8, DW_AT_TI_begin_file("../Source/portable/CCS/ARM_CM3/port.c")
     109                            .dwattr $C$DW$8, DW_AT_TI_begin_line(0xad)
     110                            .dwattr $C$DW$8, DW_AT_TI_begin_column(0x11)
TI ARM Assembler PC v15.12.1 Wed Nov 30 14:37:43 2016

Tools Copyright (c) 1996-2015 Texas Instruments Incorporated
port.asm                                                             PAGE    3

     111                            .dwattr $C$DW$8, DW_AT_decl_file("../Source/portable/CCS/ARM_CM3/port.c")
     112                            .dwattr $C$DW$8, DW_AT_decl_line(0xad)
     113                            .dwattr $C$DW$8, DW_AT_decl_column(0x11)
     114                            .dwattr $C$DW$8, DW_AT_TI_max_frame_size(0x10)
     115                            .dwpsn  file "../Source/portable/CCS/ARM_CM3/port.c",line 174,column 1,is_stmt,address pxPortI
     116                    
     117                            .dwfde $C$DW$CIE, pxPortInitialiseStack
     118                    $C$DW$9 .dwtag  DW_TAG_formal_parameter
     119                            .dwattr $C$DW$9, DW_AT_name("pxTopOfStack")
     120                            .dwattr $C$DW$9, DW_AT_TI_symbol_name("pxTopOfStack")
     121                            .dwattr $C$DW$9, DW_AT_type(*$C$DW$T$88)
     122                            .dwattr $C$DW$9, DW_AT_location[DW_OP_reg0]
     123                    
     124                    $C$DW$10        .dwtag  DW_TAG_formal_parameter
     125                            .dwattr $C$DW$10, DW_AT_name("pxCode")
     126                            .dwattr $C$DW$10, DW_AT_TI_symbol_name("pxCode")
     127                            .dwattr $C$DW$10, DW_AT_type(*$C$DW$T$37)
     128                            .dwattr $C$DW$10, DW_AT_location[DW_OP_reg1]
     129                    
     130                    $C$DW$11        .dwtag  DW_TAG_formal_parameter
     131                            .dwattr $C$DW$11, DW_AT_name("pvParameters")
     132                            .dwattr $C$DW$11, DW_AT_TI_symbol_name("pvParameters")
     133                            .dwattr $C$DW$11, DW_AT_type(*$C$DW$T$3)
     134                            .dwattr $C$DW$11, DW_AT_location[DW_OP_reg2]
     135                    
     136                    
     137                    ;*****************************************************************************
     138                    ;* FUNCTION NAME: pxPortInitialiseStack                                      *
     139                    ;*                                                                           *
     140                    ;*   Regs Modified     : A1,A2,SP,SR                                         *
     141                    ;*   Regs Used         : A1,A2,A3,SP,LR,SR                                   *
     142                    ;*   Local Frame Size  : 0 Args + 12 Auto + 0 Save = 12 byte                 *
     143                    ;*****************************************************************************
     144 00000000           pxPortInitialiseStack:
     145                    ;* --------------------------------------------------------------------------*
     146                            .dwcfi  cfa_offset, 0
     147 00000000 0D10F1AD          SUB       SP, SP, #16           ; [DPU_3_PIPE]  ; [KEEP 32-BIT INS]
     148                            .dwcfi  cfa_offset, 16
     149                    $C$DW$12        .dwtag  DW_TAG_variable
     150                            .dwattr $C$DW$12, DW_AT_name("pxTopOfStack")
     151                            .dwattr $C$DW$12, DW_AT_TI_symbol_name("pxTopOfStack")
     152                            .dwattr $C$DW$12, DW_AT_type(*$C$DW$T$88)
     153                            .dwattr $C$DW$12, DW_AT_location[DW_OP_breg13 0]
     154                    
     155                    $C$DW$13        .dwtag  DW_TAG_variable
     156                            .dwattr $C$DW$13, DW_AT_name("pxCode")
     157                            .dwattr $C$DW$13, DW_AT_TI_symbol_name("pxCode")
     158                            .dwattr $C$DW$13, DW_AT_type(*$C$DW$T$37)
     159                            .dwattr $C$DW$13, DW_AT_location[DW_OP_breg13 4]
     160                    
     161                    $C$DW$14        .dwtag  DW_TAG_variable
     162                            .dwattr $C$DW$14, DW_AT_name("pvParameters")
     163                            .dwattr $C$DW$14, DW_AT_TI_symbol_name("pvParameters")
     164                            .dwattr $C$DW$14, DW_AT_type(*$C$DW$T$3)
     165                            .dwattr $C$DW$14, DW_AT_location[DW_OP_breg13 8]
TI ARM Assembler PC v15.12.1 Wed Nov 30 14:37:43 2016

Tools Copyright (c) 1996-2015 Texas Instruments Incorporated
port.asm                                                             PAGE    4

     166                    
     167 00000004 9202              STR       A3, [SP, #8]          ; [DPU_3_PIPE] |174|  ; [ORIG 16-BIT INS]
     168 00000006 9101              STR       A2, [SP, #4]          ; [DPU_3_PIPE] |174|  ; [ORIG 16-BIT INS]
     169 00000008 9000              STR       A1, [SP, #0]          ; [DPU_3_PIPE] |174|  ; [ORIG 16-BIT INS]
     170                            .dwpsn  file "../Source/portable/CCS/ARM_CM3/port.c",line 177,column 2,is_stmt,isa 1
     171 0000000a 9800              LDR       A1, [SP, #0]          ; [DPU_3_PIPE] |177|  ; [ORIG 16-BIT INS]
     172 0000000c 1F00              SUBS      A1, A1, #4            ; [DPU_3_PIPE] |177|  ; [ORIG 16-BIT INS]
     173 0000000e 9000              STR       A1, [SP, #0]          ; [DPU_3_PIPE] |177|  ; [ORIG 16-BIT INS]
     174                            .dwpsn  file "../Source/portable/CCS/ARM_CM3/port.c",line 178,column 2,is_stmt,isa 1
     175 00000010 9800              LDR       A1, [SP, #0]          ; [DPU_3_PIPE] |178|  ; [ORIG 16-BIT INS]
     176 00000012 7180F04F          MOV       A2, #16777216         ; [DPU_3_PIPE] |178|  ; [KEEP 32-BIT INS]
     177 00000016 6001              STR       A2, [A1, #0]          ; [DPU_3_PIPE] |178|  ; [ORIG 16-BIT INS]
     178                            .dwpsn  file "../Source/portable/CCS/ARM_CM3/port.c",line 179,column 2,is_stmt,isa 1
     179 00000018 9800              LDR       A1, [SP, #0]          ; [DPU_3_PIPE] |179|  ; [ORIG 16-BIT INS]
     180 0000001a 1F00              SUBS      A1, A1, #4            ; [DPU_3_PIPE] |179|  ; [ORIG 16-BIT INS]
     181 0000001c 9000              STR       A1, [SP, #0]          ; [DPU_3_PIPE] |179|  ; [ORIG 16-BIT INS]
     182                            .dwpsn  file "../Source/portable/CCS/ARM_CM3/port.c",line 180,column 2,is_stmt,isa 1
     183 0000001e 9801              LDR       A1, [SP, #4]          ; [DPU_3_PIPE] |180|  ; [ORIG 16-BIT INS]
     184 00000020 9900              LDR       A2, [SP, #0]          ; [DPU_3_PIPE] |180|  ; [ORIG 16-BIT INS]
     185 00000022 6008              STR       A1, [A2, #0]          ; [DPU_3_PIPE] |180|  ; [ORIG 16-BIT INS]
     186                            .dwpsn  file "../Source/portable/CCS/ARM_CM3/port.c",line 181,column 2,is_stmt,isa 1
     187 00000024 9800              LDR       A1, [SP, #0]          ; [DPU_3_PIPE] |181|  ; [ORIG 16-BIT INS]
     188 00000026 1F00              SUBS      A1, A1, #4            ; [DPU_3_PIPE] |181|  ; [ORIG 16-BIT INS]
     189 00000028 9000              STR       A1, [SP, #0]          ; [DPU_3_PIPE] |181|  ; [ORIG 16-BIT INS]
     190                            .dwpsn  file "../Source/portable/CCS/ARM_CM3/port.c",line 182,column 2,is_stmt,isa 1
     191 0000002a 9800              LDR       A1, [SP, #0]          ; [DPU_3_PIPE] |182|  ; [ORIG 16-BIT INS]
     192 0000002c 2100              MOVS      A2, #0                ; [DPU_3_PIPE] |182|  ; [ORIG 16-BIT INS]
     193 0000002e 6001              STR       A2, [A1, #0]          ; [DPU_3_PIPE] |182|  ; [ORIG 16-BIT INS]
     194                            .dwpsn  file "../Source/portable/CCS/ARM_CM3/port.c",line 183,column 2,is_stmt,isa 1
     195 00000030 9800              LDR       A1, [SP, #0]          ; [DPU_3_PIPE] |183|  ; [ORIG 16-BIT INS]
     196 00000032 3814              SUBS      A1, A1, #20           ; [DPU_3_PIPE] |183|  ; [ORIG 16-BIT INS]
     197 00000034 9000              STR       A1, [SP, #0]          ; [DPU_3_PIPE] |183|  ; [ORIG 16-BIT INS]
     198                            .dwpsn  file "../Source/portable/CCS/ARM_CM3/port.c",line 184,column 2,is_stmt,isa 1
     199 00000036 9802              LDR       A1, [SP, #8]          ; [DPU_3_PIPE] |184|  ; [ORIG 16-BIT INS]
     200 00000038 9900              LDR       A2, [SP, #0]          ; [DPU_3_PIPE] |184|  ; [ORIG 16-BIT INS]
     201 0000003a 6008              STR       A1, [A2, #0]          ; [DPU_3_PIPE] |184|  ; [ORIG 16-BIT INS]
     202                            .dwpsn  file "../Source/portable/CCS/ARM_CM3/port.c",line 185,column 2,is_stmt,isa 1
     203 0000003c 9800              LDR       A1, [SP, #0]          ; [DPU_3_PIPE] |185|  ; [ORIG 16-BIT INS]
     204 0000003e 3820              SUBS      A1, A1, #32           ; [DPU_3_PIPE] |185|  ; [ORIG 16-BIT INS]
     205 00000040 9000              STR       A1, [SP, #0]          ; [DPU_3_PIPE] |185|  ; [ORIG 16-BIT INS]
     206                            .dwpsn  file "../Source/portable/CCS/ARM_CM3/port.c",line 187,column 2,is_stmt,isa 1
     207 00000042 9800              LDR       A1, [SP, #0]          ; [DPU_3_PIPE] |187|  ; [ORIG 16-BIT INS]
     208                            .dwpsn  file "../Source/portable/CCS/ARM_CM3/port.c",line 188,column 1,is_stmt,isa 1
     209 00000044 B004              ADD       SP, SP, #16           ; [DPU_3_PIPE]  ; [ORIG 16-BIT INS]
     210                            .dwcfi  cfa_offset, 0
     211                    $C$DW$15        .dwtag  DW_TAG_TI_branch
     212                            .dwattr $C$DW$15, DW_AT_low_pc(0x00)
     213                            .dwattr $C$DW$15, DW_AT_TI_return
     214                    
     215 00000046 4770              BX        LR                    ; [DPU_3_PIPE]  ; [ORIG 16-BIT INS]
     216                            ; BRANCH OCCURS                  ; [] 
     217                            .dwattr $C$DW$8, DW_AT_TI_end_file("../Source/portable/CCS/ARM_CM3/port.c")
     218                            .dwattr $C$DW$8, DW_AT_TI_end_line(0xbc)
     219                            .dwattr $C$DW$8, DW_AT_TI_end_column(0x01)
     220                            .dwendentry
TI ARM Assembler PC v15.12.1 Wed Nov 30 14:37:43 2016

Tools Copyright (c) 1996-2015 Texas Instruments Incorporated
port.asm                                                             PAGE    5

     221                            .dwendtag $C$DW$8
     222                    
     223 00000048                   .sect   ".text"
     224                            .clink
     225                            .thumbfunc xPortStartScheduler
     226 00000048                   .thumb
     227                            .global xPortStartScheduler
     228                    
     229                    $C$DW$16        .dwtag  DW_TAG_subprogram
     230                            .dwattr $C$DW$16, DW_AT_name("xPortStartScheduler")
     231                            .dwattr $C$DW$16, DW_AT_low_pc(xPortStartScheduler)
     232                            .dwattr $C$DW$16, DW_AT_high_pc(0x00)
     233                            .dwattr $C$DW$16, DW_AT_TI_symbol_name("xPortStartScheduler")
     234                            .dwattr $C$DW$16, DW_AT_external
     235                            .dwattr $C$DW$16, DW_AT_type(*$C$DW$T$82)
     236                            .dwattr $C$DW$16, DW_AT_TI_begin_file("../Source/portable/CCS/ARM_CM3/port.c")
     237                            .dwattr $C$DW$16, DW_AT_TI_begin_line(0xc2)
     238                            .dwattr $C$DW$16, DW_AT_TI_begin_column(0x0f)
     239                            .dwattr $C$DW$16, DW_AT_decl_file("../Source/portable/CCS/ARM_CM3/port.c")
     240                            .dwattr $C$DW$16, DW_AT_decl_line(0xc2)
     241                            .dwattr $C$DW$16, DW_AT_decl_column(0x0f)
     242                            .dwattr $C$DW$16, DW_AT_TI_max_frame_size(0x08)
     243                            .dwpsn  file "../Source/portable/CCS/ARM_CM3/port.c",line 195,column 1,is_stmt,address xPortSt
     244                    
     245                            .dwfde $C$DW$CIE, xPortStartScheduler
     246                    
     247                    ;*****************************************************************************
     248                    ;* FUNCTION NAME: xPortStartScheduler                                        *
     249                    ;*                                                                           *
     250                    ;*   Regs Modified     : A1,A2,A3,A4,V9,SP,LR,SR                             *
     251                    ;*   Regs Used         : A1,A2,A3,A4,V9,SP,LR,SR                             *
     252                    ;*   Local Frame Size  : 0 Args + 0 Auto + 4 Save = 4 byte                   *
     253                    ;*****************************************************************************
     254 00000048           xPortStartScheduler:
     255                    ;* --------------------------------------------------------------------------*
     256                            .dwcfi  cfa_offset, 0
     257 00000048 B508              PUSH      {A4, LR}              ; [DPU_3_PIPE]  ; [ORIG 16-BIT INS]
     258                            .dwcfi  cfa_offset, 8
     259                            .dwcfi  save_reg_to_mem, 14, -4
     260                            .dwcfi  save_reg_to_mem, 3, -8
     261                            .dwpsn  file "../Source/portable/CCS/ARM_CM3/port.c",line 198,column 2,is_stmt,isa 1
     262 0000004a 4923              LDR       A2, $C$CON1           ; [DPU_3_PIPE] |198|  ; [ORIG 16-BIT INS]
     263 0000004c 6808              LDR       A1, [A2, #0]          ; [DPU_3_PIPE] |198|  ; [ORIG 16-BIT INS]
     264 0000004e 0060F440          ORR       A1, A1, #14680064     ; [DPU_3_PIPE] |198|  ; [KEEP 32-BIT INS]
     265 00000052 6008              STR       A1, [A2, #0]          ; [DPU_3_PIPE] |198|  ; [ORIG 16-BIT INS]
     266                            .dwpsn  file "../Source/portable/CCS/ARM_CM3/port.c",line 199,column 2,is_stmt,isa 1
     267 00000054 4920              LDR       A2, $C$CON1           ; [DPU_3_PIPE] |199|  ; [ORIG 16-BIT INS]
     268 00000056 6808              LDR       A1, [A2, #0]          ; [DPU_3_PIPE] |199|  ; [ORIG 16-BIT INS]
     269 00000058 4060F040          ORR       A1, A1, #-536870912   ; [DPU_3_PIPE] |199|  ; [KEEP 32-BIT INS]
     270 0000005c 6008              STR       A1, [A2, #0]          ; [DPU_3_PIPE] |199|  ; [ORIG 16-BIT INS]
     271                            .dwpsn  file "../Source/portable/CCS/ARM_CM3/port.c",line 203,column 2,is_stmt,isa 1
     272                    $C$DW$17        .dwtag  DW_TAG_TI_branch
     273                            .dwattr $C$DW$17, DW_AT_low_pc(0x00)
     274                            .dwattr $C$DW$17, DW_AT_name("vPortSetupTimerInterrupt")
     275                            .dwattr $C$DW$17, DW_AT_TI_call
TI ARM Assembler PC v15.12.1 Wed Nov 30 14:37:43 2016

Tools Copyright (c) 1996-2015 Texas Instruments Incorporated
port.asm                                                             PAGE    6

     276                    
     277 0000005e FFFEF7FF!         BL        vPortSetupTimerInterrupt ; [DPU_3_PIPE] |203|  ; [KEEP 32-BIT INS]
     278                            ; CALL OCCURS {vPortSetupTimerInterrupt }  ; [] |203| 
     279                            .dwpsn  file "../Source/portable/CCS/ARM_CM3/port.c",line 206,column 2,is_stmt,isa 1
     280 00000062 491E              LDR       A2, $C$CON2           ; [DPU_3_PIPE] |206|  ; [ORIG 16-BIT INS]
     281 00000064 2000              MOVS      A1, #0                ; [DPU_3_PIPE] |206|  ; [ORIG 16-BIT INS]
     282 00000066 6008              STR       A1, [A2, #0]          ; [DPU_3_PIPE] |206|  ; [ORIG 16-BIT INS]
     283                            .dwpsn  file "../Source/portable/CCS/ARM_CM3/port.c",line 209,column 2,is_stmt,isa 1
     284                    $C$DW$18        .dwtag  DW_TAG_TI_branch
     285                            .dwattr $C$DW$18, DW_AT_low_pc(0x00)
     286                            .dwattr $C$DW$18, DW_AT_name("vPortStartFirstTask")
     287                            .dwattr $C$DW$18, DW_AT_TI_call
     288                    
     289 00000068 FFFEF7FF!         BL        vPortStartFirstTask   ; [DPU_3_PIPE] |209|  ; [KEEP 32-BIT INS]
     290                            ; CALL OCCURS {vPortStartFirstTask }  ; [] |209| 
     291                            .dwpsn  file "../Source/portable/CCS/ARM_CM3/port.c",line 212,column 2,is_stmt,isa 1
     292 0000006c 2000              MOVS      A1, #0                ; [DPU_3_PIPE] |212|  ; [ORIG 16-BIT INS]
     293                            .dwpsn  file "../Source/portable/CCS/ARM_CM3/port.c",line 213,column 1,is_stmt,isa 1
     294                    $C$DW$19        .dwtag  DW_TAG_TI_branch
     295                            .dwattr $C$DW$19, DW_AT_low_pc(0x00)
     296                            .dwattr $C$DW$19, DW_AT_TI_return
     297                    
     298 0000006e BD08              POP       {A4, PC}              ; [DPU_3_PIPE]  ; [ORIG 16-BIT INS]
     299                            .dwcfi  cfa_offset, 0
     300                            ; BRANCH OCCURS                  ; [] 
     301                            .dwattr $C$DW$16, DW_AT_TI_end_file("../Source/portable/CCS/ARM_CM3/port.c")
     302                            .dwattr $C$DW$16, DW_AT_TI_end_line(0xd5)
     303                            .dwattr $C$DW$16, DW_AT_TI_end_column(0x01)
     304                            .dwendentry
     305                            .dwendtag $C$DW$16
     306                    
     307 00000070                   .sect   ".text"
     308                            .clink
     309                            .thumbfunc vPortEndScheduler
     310 00000070                   .thumb
     311                            .global vPortEndScheduler
     312                    
     313                    $C$DW$20        .dwtag  DW_TAG_subprogram
     314                            .dwattr $C$DW$20, DW_AT_name("vPortEndScheduler")
     315                            .dwattr $C$DW$20, DW_AT_low_pc(vPortEndScheduler)
     316                            .dwattr $C$DW$20, DW_AT_high_pc(0x00)
     317                            .dwattr $C$DW$20, DW_AT_TI_symbol_name("vPortEndScheduler")
     318                            .dwattr $C$DW$20, DW_AT_external
     319                            .dwattr $C$DW$20, DW_AT_TI_begin_file("../Source/portable/CCS/ARM_CM3/port.c")
     320                            .dwattr $C$DW$20, DW_AT_TI_begin_line(0xd8)
     321                            .dwattr $C$DW$20, DW_AT_TI_begin_column(0x06)
     322                            .dwattr $C$DW$20, DW_AT_decl_file("../Source/portable/CCS/ARM_CM3/port.c")
     323                            .dwattr $C$DW$20, DW_AT_decl_line(0xd8)
     324                            .dwattr $C$DW$20, DW_AT_decl_column(0x06)
     325                            .dwattr $C$DW$20, DW_AT_TI_max_frame_size(0x00)
     326                            .dwpsn  file "../Source/portable/CCS/ARM_CM3/port.c",line 217,column 1,is_stmt,address vPortEn
     327                    
     328                            .dwfde $C$DW$CIE, vPortEndScheduler
     329                    
     330                    ;*****************************************************************************
TI ARM Assembler PC v15.12.1 Wed Nov 30 14:37:43 2016

Tools Copyright (c) 1996-2015 Texas Instruments Incorporated
port.asm                                                             PAGE    7

     331                    ;* FUNCTION NAME: vPortEndScheduler                                          *
     332                    ;*                                                                           *
     333                    ;*   Regs Modified     :                                                     *
     334                    ;*   Regs Used         : LR                                                  *
     335                    ;*   Local Frame Size  : 0 Args + 0 Auto + 0 Save = 0 byte                   *
     336                    ;*****************************************************************************
     337 00000070           vPortEndScheduler:
     338                    ;* --------------------------------------------------------------------------*
     339                            .dwcfi  cfa_offset, 0
     340                            .dwpsn  file "../Source/portable/CCS/ARM_CM3/port.c",line 220,column 1,is_stmt,isa 1
     341                    $C$DW$21        .dwtag  DW_TAG_TI_branch
     342                            .dwattr $C$DW$21, DW_AT_low_pc(0x00)
     343                            .dwattr $C$DW$21, DW_AT_TI_return
     344                    
     345 00000070 4770              BX        LR                    ; [DPU_3_PIPE]  ; [ORIG 16-BIT INS]
     346                            ; BRANCH OCCURS                  ; [] 
     347                            .dwattr $C$DW$20, DW_AT_TI_end_file("../Source/portable/CCS/ARM_CM3/port.c")
     348                            .dwattr $C$DW$20, DW_AT_TI_end_line(0xdc)
     349                            .dwattr $C$DW$20, DW_AT_TI_end_column(0x01)
     350                            .dwendentry
     351                            .dwendtag $C$DW$20
     352                    
     353 00000072                   .sect   ".text"
     354                            .clink
     355                            .thumbfunc vPortYieldFromISR
     356 00000072                   .thumb
     357                            .global vPortYieldFromISR
     358                    
     359                    $C$DW$22        .dwtag  DW_TAG_subprogram
     360                            .dwattr $C$DW$22, DW_AT_name("vPortYieldFromISR")
     361                            .dwattr $C$DW$22, DW_AT_low_pc(vPortYieldFromISR)
     362                            .dwattr $C$DW$22, DW_AT_high_pc(0x00)
     363                            .dwattr $C$DW$22, DW_AT_TI_symbol_name("vPortYieldFromISR")
     364                            .dwattr $C$DW$22, DW_AT_external
     365                            .dwattr $C$DW$22, DW_AT_TI_begin_file("../Source/portable/CCS/ARM_CM3/port.c")
     366                            .dwattr $C$DW$22, DW_AT_TI_begin_line(0xdf)
     367                            .dwattr $C$DW$22, DW_AT_TI_begin_column(0x06)
     368                            .dwattr $C$DW$22, DW_AT_decl_file("../Source/portable/CCS/ARM_CM3/port.c")
     369                            .dwattr $C$DW$22, DW_AT_decl_line(0xdf)
     370                            .dwattr $C$DW$22, DW_AT_decl_column(0x06)
     371                            .dwattr $C$DW$22, DW_AT_TI_max_frame_size(0x00)
     372                            .dwpsn  file "../Source/portable/CCS/ARM_CM3/port.c",line 224,column 1,is_stmt,address vPortYi
     373                    
     374                            .dwfde $C$DW$CIE, vPortYieldFromISR
     375                    
     376                    ;*****************************************************************************
     377                    ;* FUNCTION NAME: vPortYieldFromISR                                          *
     378                    ;*                                                                           *
     379                    ;*   Regs Modified     : A1,A2                                               *
     380                    ;*   Regs Used         : A1,A2,LR                                            *
     381                    ;*   Local Frame Size  : 0 Args + 0 Auto + 0 Save = 0 byte                   *
     382                    ;*****************************************************************************
     383 00000072           vPortYieldFromISR:
     384                    ;* --------------------------------------------------------------------------*
     385                            .dwcfi  cfa_offset, 0
TI ARM Assembler PC v15.12.1 Wed Nov 30 14:37:43 2016

Tools Copyright (c) 1996-2015 Texas Instruments Incorporated
port.asm                                                             PAGE    8

     386                            .dwpsn  file "../Source/portable/CCS/ARM_CM3/port.c",line 226,column 2,is_stmt,isa 1
     387 00000072 491B              LDR       A2, $C$CON3           ; [DPU_3_PIPE] |226|  ; [ORIG 16-BIT INS]
     388 00000074 5080F04F          MOV       A1, #268435456        ; [DPU_3_PIPE] |226|  ; [KEEP 32-BIT INS]
     389 00000078 6008              STR       A1, [A2, #0]          ; [DPU_3_PIPE] |226|  ; [ORIG 16-BIT INS]
     390                            .dwpsn  file "../Source/portable/CCS/ARM_CM3/port.c",line 227,column 1,is_stmt,isa 1
     391                    $C$DW$23        .dwtag  DW_TAG_TI_branch
     392                            .dwattr $C$DW$23, DW_AT_low_pc(0x00)
     393                            .dwattr $C$DW$23, DW_AT_TI_return
     394                    
     395 0000007a 4770              BX        LR                    ; [DPU_3_PIPE]  ; [ORIG 16-BIT INS]
     396                            ; BRANCH OCCURS                  ; [] 
     397                            .dwattr $C$DW$22, DW_AT_TI_end_file("../Source/portable/CCS/ARM_CM3/port.c")
     398                            .dwattr $C$DW$22, DW_AT_TI_end_line(0xe3)
     399                            .dwattr $C$DW$22, DW_AT_TI_end_column(0x01)
     400                            .dwendentry
     401                            .dwendtag $C$DW$22
     402                    
     403 0000007c                   .sect   ".text"
     404                            .clink
     405                            .thumbfunc vPortEnterCritical
     406 0000007c                   .thumb
     407                            .global vPortEnterCritical
     408                    
     409                    $C$DW$24        .dwtag  DW_TAG_subprogram
     410                            .dwattr $C$DW$24, DW_AT_name("vPortEnterCritical")
     411                            .dwattr $C$DW$24, DW_AT_low_pc(vPortEnterCritical)
     412                            .dwattr $C$DW$24, DW_AT_high_pc(0x00)
     413                            .dwattr $C$DW$24, DW_AT_TI_symbol_name("vPortEnterCritical")
     414                            .dwattr $C$DW$24, DW_AT_external
     415                            .dwattr $C$DW$24, DW_AT_TI_begin_file("../Source/portable/CCS/ARM_CM3/port.c")
     416                            .dwattr $C$DW$24, DW_AT_TI_begin_line(0xe6)
     417                            .dwattr $C$DW$24, DW_AT_TI_begin_column(0x06)
     418                            .dwattr $C$DW$24, DW_AT_decl_file("../Source/portable/CCS/ARM_CM3/port.c")
     419                            .dwattr $C$DW$24, DW_AT_decl_line(0xe6)
     420                            .dwattr $C$DW$24, DW_AT_decl_column(0x06)
     421                            .dwattr $C$DW$24, DW_AT_TI_max_frame_size(0x08)
     422                            .dwpsn  file "../Source/portable/CCS/ARM_CM3/port.c",line 231,column 1,is_stmt,address vPortEn
     423                    
     424                            .dwfde $C$DW$CIE, vPortEnterCritical
     425                    
     426                    ;*****************************************************************************
     427                    ;* FUNCTION NAME: vPortEnterCritical                                         *
     428                    ;*                                                                           *
     429                    ;*   Regs Modified     : A1,A2,A3,A4,V9,SP,LR,SR                             *
     430                    ;*   Regs Used         : A1,A2,A3,A4,V9,SP,LR,SR                             *
     431                    ;*   Local Frame Size  : 0 Args + 0 Auto + 4 Save = 4 byte                   *
     432                    ;*****************************************************************************
     433 0000007c           vPortEnterCritical:
     434                    ;* --------------------------------------------------------------------------*
     435                            .dwcfi  cfa_offset, 0
     436 0000007c B508              PUSH      {A4, LR}              ; [DPU_3_PIPE]  ; [ORIG 16-BIT INS]
     437                            .dwcfi  cfa_offset, 8
     438                            .dwcfi  save_reg_to_mem, 14, -4
     439                            .dwcfi  save_reg_to_mem, 3, -8
     440                            .dwpsn  file "../Source/portable/CCS/ARM_CM3/port.c",line 232,column 2,is_stmt,isa 1
TI ARM Assembler PC v15.12.1 Wed Nov 30 14:37:43 2016

Tools Copyright (c) 1996-2015 Texas Instruments Incorporated
port.asm                                                             PAGE    9

     441                    $C$DW$25        .dwtag  DW_TAG_TI_branch
     442                            .dwattr $C$DW$25, DW_AT_low_pc(0x00)
     443                            .dwattr $C$DW$25, DW_AT_name("ulPortSetInterruptMask")
     444                            .dwattr $C$DW$25, DW_AT_TI_call
     445                    
     446 0000007e FFFEF7FF!         BL        ulPortSetInterruptMask ; [DPU_3_PIPE] |232|  ; [KEEP 32-BIT INS]
     447                            ; CALL OCCURS {ulPortSetInterruptMask }  ; [] |232| 
     448                            .dwpsn  file "../Source/portable/CCS/ARM_CM3/port.c",line 233,column 2,is_stmt,isa 1
     449 00000082 4916              LDR       A2, $C$CON2           ; [DPU_3_PIPE] |233|  ; [ORIG 16-BIT INS]
     450 00000084 6808              LDR       A1, [A2, #0]          ; [DPU_3_PIPE] |233|  ; [ORIG 16-BIT INS]
     451 00000086 1C40              ADDS      A1, A1, #1            ; [DPU_3_PIPE] |233|  ; [ORIG 16-BIT INS]
     452 00000088 6008              STR       A1, [A2, #0]          ; [DPU_3_PIPE] |233|  ; [ORIG 16-BIT INS]
     453                            .dwpsn  file "../Source/portable/CCS/ARM_CM3/port.c",line 234,column 1,is_stmt,isa 1
     454                    $C$DW$26        .dwtag  DW_TAG_TI_branch
     455                            .dwattr $C$DW$26, DW_AT_low_pc(0x00)
     456                            .dwattr $C$DW$26, DW_AT_TI_return
     457                    
     458 0000008a BD08              POP       {A4, PC}              ; [DPU_3_PIPE]  ; [ORIG 16-BIT INS]
     459                            .dwcfi  cfa_offset, 0
     460                            ; BRANCH OCCURS                  ; [] 
     461                            .dwattr $C$DW$24, DW_AT_TI_end_file("../Source/portable/CCS/ARM_CM3/port.c")
     462                            .dwattr $C$DW$24, DW_AT_TI_end_line(0xea)
     463                            .dwattr $C$DW$24, DW_AT_TI_end_column(0x01)
     464                            .dwendentry
     465                            .dwendtag $C$DW$24
     466                    
     467 0000008c                   .sect   ".text"
     468                            .clink
     469                            .thumbfunc vPortExitCritical
     470 0000008c                   .thumb
     471                            .global vPortExitCritical
     472                    
     473                    $C$DW$27        .dwtag  DW_TAG_subprogram
     474                            .dwattr $C$DW$27, DW_AT_name("vPortExitCritical")
     475                            .dwattr $C$DW$27, DW_AT_low_pc(vPortExitCritical)
     476                            .dwattr $C$DW$27, DW_AT_high_pc(0x00)
     477                            .dwattr $C$DW$27, DW_AT_TI_symbol_name("vPortExitCritical")
     478                            .dwattr $C$DW$27, DW_AT_external
     479                            .dwattr $C$DW$27, DW_AT_TI_begin_file("../Source/portable/CCS/ARM_CM3/port.c")
     480                            .dwattr $C$DW$27, DW_AT_TI_begin_line(0xed)
     481                            .dwattr $C$DW$27, DW_AT_TI_begin_column(0x06)
     482                            .dwattr $C$DW$27, DW_AT_decl_file("../Source/portable/CCS/ARM_CM3/port.c")
     483                            .dwattr $C$DW$27, DW_AT_decl_line(0xed)
     484                            .dwattr $C$DW$27, DW_AT_decl_column(0x06)
     485                            .dwattr $C$DW$27, DW_AT_TI_max_frame_size(0x08)
     486                            .dwpsn  file "../Source/portable/CCS/ARM_CM3/port.c",line 238,column 1,is_stmt,address vPortEx
     487                    
     488                            .dwfde $C$DW$CIE, vPortExitCritical
     489                    
     490                    ;*****************************************************************************
     491                    ;* FUNCTION NAME: vPortExitCritical                                          *
     492                    ;*                                                                           *
     493                    ;*   Regs Modified     : A1,A2,A3,A4,V9,SP,LR,SR                             *
     494                    ;*   Regs Used         : A1,A2,A3,A4,V9,SP,LR,SR                             *
     495                    ;*   Local Frame Size  : 0 Args + 0 Auto + 4 Save = 4 byte                   *
TI ARM Assembler PC v15.12.1 Wed Nov 30 14:37:43 2016

Tools Copyright (c) 1996-2015 Texas Instruments Incorporated
port.asm                                                             PAGE   10

     496                    ;*****************************************************************************
     497 0000008c           vPortExitCritical:
     498                    ;* --------------------------------------------------------------------------*
     499                            .dwcfi  cfa_offset, 0
     500 0000008c B508              PUSH      {A4, LR}              ; [DPU_3_PIPE]  ; [ORIG 16-BIT INS]
     501                            .dwcfi  cfa_offset, 8
     502                            .dwcfi  save_reg_to_mem, 14, -4
     503                            .dwcfi  save_reg_to_mem, 3, -8
     504                            .dwpsn  file "../Source/portable/CCS/ARM_CM3/port.c",line 239,column 2,is_stmt,isa 1
     505 0000008e 4913              LDR       A2, $C$CON2           ; [DPU_3_PIPE] |239|  ; [ORIG 16-BIT INS]
     506 00000090 6808              LDR       A1, [A2, #0]          ; [DPU_3_PIPE] |239|  ; [ORIG 16-BIT INS]
     507 00000092 1E40              SUBS      A1, A1, #1            ; [DPU_3_PIPE] |239|  ; [ORIG 16-BIT INS]
     508 00000094 6008              STR       A1, [A2, #0]          ; [DPU_3_PIPE] |239|  ; [ORIG 16-BIT INS]
     509                            .dwpsn  file "../Source/portable/CCS/ARM_CM3/port.c",line 240,column 2,is_stmt,isa 1
     510 00000096 4811              LDR       A1, $C$CON2           ; [DPU_3_PIPE] |240|  ; [ORIG 16-BIT INS]
     511 00000098 6800              LDR       A1, [A1, #0]          ; [DPU_3_PIPE] |240|  ; [ORIG 16-BIT INS]
     512 0000009a B910              CBNZ      A1, ||$C$L1||         ; []  ; [ORIG 16-BIT INS]
     513                            ; BRANCHCC OCCURS {||$C$L1||}    ; [] |240| 
     514                    ;* --------------------------------------------------------------------------*
     515                            .dwpsn  file "../Source/portable/CCS/ARM_CM3/port.c",line 242,column 3,is_stmt,isa 1
     516 0000009c 2000              MOVS      A1, #0                ; [DPU_3_PIPE] |242|  ; [ORIG 16-BIT INS]
     517                    $C$DW$28        .dwtag  DW_TAG_TI_branch
     518                            .dwattr $C$DW$28, DW_AT_low_pc(0x00)
     519                            .dwattr $C$DW$28, DW_AT_name("vPortClearInterruptMask")
     520                            .dwattr $C$DW$28, DW_AT_TI_call
     521                    
     522 0000009e FFFEF7FF!         BL        vPortClearInterruptMask ; [DPU_3_PIPE] |242|  ; [KEEP 32-BIT INS]
     523                            ; CALL OCCURS {vPortClearInterruptMask }  ; [] |242| 
     524                            .dwpsn  file "../Source/portable/CCS/ARM_CM3/port.c",line 244,column 1,is_stmt,isa 1
     525                    ;* --------------------------------------------------------------------------*
     526                    ||$C$L1||:    
     527                    $C$DW$29        .dwtag  DW_TAG_TI_branch
     528                            .dwattr $C$DW$29, DW_AT_low_pc(0x00)
     529                            .dwattr $C$DW$29, DW_AT_TI_return
     530                    
     531 000000a2 BD08              POP       {A4, PC}              ; [DPU_3_PIPE]  ; [ORIG 16-BIT INS]
     532                            .dwcfi  cfa_offset, 0
     533                            ; BRANCH OCCURS                  ; [] 
     534                            .dwattr $C$DW$27, DW_AT_TI_end_file("../Source/portable/CCS/ARM_CM3/port.c")
     535                            .dwattr $C$DW$27, DW_AT_TI_end_line(0xf4)
     536                            .dwattr $C$DW$27, DW_AT_TI_end_column(0x01)
     537                            .dwendentry
     538                            .dwendtag $C$DW$27
     539                    
     540 000000a4                   .sect   ".text"
     541                            .clink
     542                            .thumbfunc xPortSysTickHandler
     543 000000a4                   .thumb
     544                            .global xPortSysTickHandler
     545                    
     546                    $C$DW$30        .dwtag  DW_TAG_subprogram
     547                            .dwattr $C$DW$30, DW_AT_name("xPortSysTickHandler")
     548                            .dwattr $C$DW$30, DW_AT_low_pc(xPortSysTickHandler)
     549                            .dwattr $C$DW$30, DW_AT_high_pc(0x00)
     550                            .dwattr $C$DW$30, DW_AT_TI_symbol_name("xPortSysTickHandler")
TI ARM Assembler PC v15.12.1 Wed Nov 30 14:37:43 2016

Tools Copyright (c) 1996-2015 Texas Instruments Incorporated
port.asm                                                             PAGE   11

     551                            .dwattr $C$DW$30, DW_AT_external
     552                            .dwattr $C$DW$30, DW_AT_TI_begin_file("../Source/portable/CCS/ARM_CM3/port.c")
     553                            .dwattr $C$DW$30, DW_AT_TI_begin_line(0xf9)
     554                            .dwattr $C$DW$30, DW_AT_TI_begin_column(0x06)
     555                            .dwattr $C$DW$30, DW_AT_decl_file("../Source/portable/CCS/ARM_CM3/port.c")
     556                            .dwattr $C$DW$30, DW_AT_decl_line(0xf9)
     557                            .dwattr $C$DW$30, DW_AT_decl_column(0x06)
     558                            .dwattr $C$DW$30, DW_AT_TI_max_frame_size(0x08)
     559                            .dwpsn  file "../Source/portable/CCS/ARM_CM3/port.c",line 249,column 34,is_stmt,address xPortS
     560                    
     561                            .dwfde $C$DW$CIE, xPortSysTickHandler
     562                    
     563                    ;*****************************************************************************
     564                    ;* FUNCTION NAME: xPortSysTickHandler                                        *
     565                    ;*                                                                           *
     566                    ;*   Regs Modified     : A1,A2,A3,A4,V9,SP,LR,SR                             *
     567                    ;*   Regs Used         : A1,A2,A3,A4,V9,SP,LR,SR                             *
     568                    ;*   Local Frame Size  : 0 Args + 0 Auto + 4 Save = 4 byte                   *
     569                    ;*****************************************************************************
     570 000000a4           xPortSysTickHandler:
     571                    ;* --------------------------------------------------------------------------*
     572                            .dwcfi  cfa_offset, 0
     573 000000a4 B508              PUSH      {A4, LR}              ; [DPU_3_PIPE]  ; [ORIG 16-BIT INS]
     574                            .dwcfi  cfa_offset, 8
     575                            .dwcfi  save_reg_to_mem, 14, -4
     576                            .dwcfi  save_reg_to_mem, 3, -8
     577                            .dwpsn  file "../Source/portable/CCS/ARM_CM3/port.c",line 251,column 2,is_stmt,isa 1
     578 000000a6 490F              LDR       A2, $C$CON4           ; [DPU_3_PIPE] |251|  ; [ORIG 16-BIT INS]
     579 000000a8 6808              LDR       A1, [A2, #0]          ; [DPU_3_PIPE] |251|  ; [ORIG 16-BIT INS]
     580 000000aa 1C40              ADDS      A1, A1, #1            ; [DPU_3_PIPE] |251|  ; [ORIG 16-BIT INS]
     581 000000ac 6008              STR       A1, [A2, #0]          ; [DPU_3_PIPE] |251|  ; [ORIG 16-BIT INS]
     582                            .dwpsn  file "../Source/portable/CCS/ARM_CM3/port.c",line 257,column 5,is_stmt,isa 1
     583                    $C$DW$31        .dwtag  DW_TAG_TI_branch
     584                            .dwattr $C$DW$31, DW_AT_low_pc(0x00)
     585                            .dwattr $C$DW$31, DW_AT_name("ulPortSetInterruptMask")
     586                            .dwattr $C$DW$31, DW_AT_TI_call
     587                    
     588 000000ae FFFEF7FF!         BL        ulPortSetInterruptMask ; [DPU_3_PIPE] |257|  ; [KEEP 32-BIT INS]
     589                            ; CALL OCCURS {ulPortSetInterruptMask }  ; [] |257| 
     590                            .dwpsn  file "../Source/portable/CCS/ARM_CM3/port.c",line 260,column 9,is_stmt,isa 1
     591                    $C$DW$32        .dwtag  DW_TAG_TI_branch
     592                            .dwattr $C$DW$32, DW_AT_low_pc(0x00)
     593                            .dwattr $C$DW$32, DW_AT_name("xTaskIncrementTick")
     594                            .dwattr $C$DW$32, DW_AT_TI_call
     595                    
     596 000000b2 FFFEF7FF!         BL        xTaskIncrementTick    ; [DPU_3_PIPE] |260|  ; [KEEP 32-BIT INS]
     597                            ; CALL OCCURS {xTaskIncrementTick }  ; [] |260| 
     598 000000b6 B118              CBZ       A1, ||$C$L2||         ; []  ; [ORIG 16-BIT INS]
     599                            ; BRANCHCC OCCURS {||$C$L2||}    ; [] |260| 
     600                    ;* --------------------------------------------------------------------------*
     601                            .dwpsn  file "../Source/portable/CCS/ARM_CM3/port.c",line 264,column 13,is_stmt,isa 1
     602 000000b8 4909              LDR       A2, $C$CON3           ; [DPU_3_PIPE] |264|  ; [ORIG 16-BIT INS]
     603 000000ba 5080F04F          MOV       A1, #268435456        ; [DPU_3_PIPE] |264|  ; [KEEP 32-BIT INS]
     604 000000be 6008              STR       A1, [A2, #0]          ; [DPU_3_PIPE] |264|  ; [ORIG 16-BIT INS]
     605                    ;* --------------------------------------------------------------------------*
TI ARM Assembler PC v15.12.1 Wed Nov 30 14:37:43 2016

Tools Copyright (c) 1996-2015 Texas Instruments Incorporated
port.asm                                                             PAGE   12

     606 000000c0           ||$C$L2||:    
     607                            .dwpsn  file "../Source/portable/CCS/ARM_CM3/port.c",line 267,column 5,is_stmt,isa 1
     608 000000c0 2000              MOVS      A1, #0                ; [DPU_3_PIPE] |267|  ; [ORIG 16-BIT INS]
     609                    $C$DW$33        .dwtag  DW_TAG_TI_branch
     610                            .dwattr $C$DW$33, DW_AT_low_pc(0x00)
     611                            .dwattr $C$DW$33, DW_AT_name("vPortClearInterruptMask")
     612                            .dwattr $C$DW$33, DW_AT_TI_call
     613                    
     614 000000c2 FFFEF7FF!         BL        vPortClearInterruptMask ; [DPU_3_PIPE] |267|  ; [KEEP 32-BIT INS]
     615                            ; CALL OCCURS {vPortClearInterruptMask }  ; [] |267| 
     616                            .dwpsn  file "../Source/portable/CCS/ARM_CM3/port.c",line 268,column 1,is_stmt,isa 1
     617                    $C$DW$34        .dwtag  DW_TAG_TI_branch
     618                            .dwattr $C$DW$34, DW_AT_low_pc(0x00)
     619                            .dwattr $C$DW$34, DW_AT_TI_return
     620                    
     621 000000c6 BD08              POP       {A4, PC}              ; [DPU_3_PIPE]  ; [ORIG 16-BIT INS]
     622                            .dwcfi  cfa_offset, 0
     623                            ; BRANCH OCCURS                  ; [] 
     624                            .dwattr $C$DW$30, DW_AT_TI_end_file("../Source/portable/CCS/ARM_CM3/port.c")
     625                            .dwattr $C$DW$30, DW_AT_TI_end_line(0x10c)
     626                            .dwattr $C$DW$30, DW_AT_TI_end_column(0x01)
     627                            .dwendentry
     628                            .dwendtag $C$DW$30
     629                    
     630 000000c8                   .sect   ".text"
     631                            .clink
     632                            .thumbfunc vPortSetupTimerInterrupt
     633 000000c8                   .thumb
     634                            .weak   vPortSetupTimerInterrupt
     635                    
     636                    $C$DW$35        .dwtag  DW_TAG_subprogram
     637                            .dwattr $C$DW$35, DW_AT_name("vPortSetupTimerInterrupt")
     638                            .dwattr $C$DW$35, DW_AT_low_pc(vPortSetupTimerInterrupt)
     639                            .dwattr $C$DW$35, DW_AT_high_pc(0x00)
     640                            .dwattr $C$DW$35, DW_AT_TI_symbol_name("vPortSetupTimerInterrupt")
     641                            .dwattr $C$DW$35, DW_AT_external
     642                            .dwattr $C$DW$35, DW_AT_TI_begin_file("../Source/portable/CCS/ARM_CM3/port.c")
     643                            .dwattr $C$DW$35, DW_AT_TI_begin_line(0x198)
     644                            .dwattr $C$DW$35, DW_AT_TI_begin_column(0x06)
     645                            .dwattr $C$DW$35, DW_AT_decl_file("../Source/portable/CCS/ARM_CM3/port.c")
     646                            .dwattr $C$DW$35, DW_AT_decl_line(0x198)
     647                            .dwattr $C$DW$35, DW_AT_decl_column(0x06)
     648                            .dwattr $C$DW$35, DW_AT_TI_max_frame_size(0x00)
     649                            .dwpsn  file "../Source/portable/CCS/ARM_CM3/port.c",line 410,column 1,is_stmt,address vPortSe
     650                    
     651                            .dwfde $C$DW$CIE, vPortSetupTimerInterrupt
     652                    
     653                    ;*****************************************************************************
     654                    ;* FUNCTION NAME: vPortSetupTimerInterrupt                                   *
     655                    ;*                                                                           *
     656                    ;*   Regs Modified     : A1,A2,SR                                            *
     657                    ;*   Regs Used         : A1,A2,LR,SR                                         *
     658                    ;*   Local Frame Size  : 0 Args + 0 Auto + 0 Save = 0 byte                   *
     659                    ;*****************************************************************************
     660 000000c8           vPortSetupTimerInterrupt:
TI ARM Assembler PC v15.12.1 Wed Nov 30 14:37:43 2016

Tools Copyright (c) 1996-2015 Texas Instruments Incorporated
port.asm                                                             PAGE   13

     661                    ;* --------------------------------------------------------------------------*
     662                            .dwcfi  cfa_offset, 0
     663                            .dwpsn  file "../Source/portable/CCS/ARM_CM3/port.c",line 421,column 2,is_stmt,isa 1
     664 000000c8 4907              LDR       A2, $C$CON5           ; [DPU_3_PIPE] |421|  ; [ORIG 16-BIT INS]
     665 000000ca 3087F241          MOV       A1, #4999             ; [DPU_3_PIPE] |421|  ; [KEEP 32-BIT INS]
     666 000000ce 6008              STR       A1, [A2, #0]          ; [DPU_3_PIPE] |421|  ; [ORIG 16-BIT INS]
     667                            .dwpsn  file "../Source/portable/CCS/ARM_CM3/port.c",line 422,column 2,is_stmt,isa 1
     668 000000d0 4906              LDR       A2, $C$CON6           ; [DPU_3_PIPE] |422|  ; [ORIG 16-BIT INS]
     669 000000d2 2007              MOVS      A1, #7                ; [DPU_3_PIPE] |422|  ; [ORIG 16-BIT INS]
     670 000000d4 6008              STR       A1, [A2, #0]          ; [DPU_3_PIPE] |422|  ; [ORIG 16-BIT INS]
     671                            .dwpsn  file "../Source/portable/CCS/ARM_CM3/port.c",line 423,column 1,is_stmt,isa 1
     672                    $C$DW$36        .dwtag  DW_TAG_TI_branch
     673                            .dwattr $C$DW$36, DW_AT_low_pc(0x00)
     674                            .dwattr $C$DW$36, DW_AT_TI_return
     675                    
     676 000000d6 4770              BX        LR                    ; [DPU_3_PIPE]  ; [ORIG 16-BIT INS]
     677                            ; BRANCH OCCURS                  ; [] 
     678                            .dwattr $C$DW$35, DW_AT_TI_end_file("../Source/portable/CCS/ARM_CM3/port.c")
     679                            .dwattr $C$DW$35, DW_AT_TI_end_line(0x1a7)
     680                            .dwattr $C$DW$35, DW_AT_TI_end_column(0x01)
     681                            .dwendentry
     682                            .dwendtag $C$DW$35
     683                    
     684                    ;******************************************************************************
     685                    ;* CONSTANT TABLE                                                             *
     686                    ;******************************************************************************
     687 000000d8                   .sect   ".text"
     688                            .align  4
     689 000000d8 E000ED20  ||$C$CON1||:    .bits   -536810208,32
     690                            .align  4
     691 000000dc 00000000! ||$C$CON2||:    .bits   uxCriticalNesting,32
     692                            .align  4
     693 000000e0 E000ED04  ||$C$CON3||:    .bits   -536810236,32
     694                            .align  4
     695 000000e4 00000000! ||$C$CON4||:    .bits   xPortSysTickCount,32
     696                            .align  4
     697 000000e8 E000E014  ||$C$CON5||:    .bits   -536813548,32
     698                            .align  4
     699 000000ec E000E010  ||$C$CON6||:    .bits   -536813552,32
     700                    ;*****************************************************************************
     701                    ;* UNDEFINED EXTERNAL REFERENCES                                             *
     702                    ;*****************************************************************************
     703                            .global ulPortSetInterruptMask
     704                            .global vPortClearInterruptMask
     705                            .global xTaskIncrementTick
     706                            .global vPortStartFirstTask
     707                    
     708                    ;******************************************************************************
     709                    ;* BUILD ATTRIBUTES                                                           *
     710                    ;******************************************************************************
     711                            .battr "aeabi", Tag_File, 1, Tag_ABI_PCS_wchar_t(2)
     712                            .battr "aeabi", Tag_File, 1, Tag_ABI_FP_rounding(0)
     713                            .battr "aeabi", Tag_File, 1, Tag_ABI_FP_denormal(0)
     714                            .battr "aeabi", Tag_File, 1, Tag_ABI_FP_exceptions(0)
     715                            .battr "aeabi", Tag_File, 1, Tag_ABI_FP_number_model(1)
TI ARM Assembler PC v15.12.1 Wed Nov 30 14:37:43 2016

Tools Copyright (c) 1996-2015 Texas Instruments Incorporated
port.asm                                                             PAGE   14

     716                            .battr "aeabi", Tag_File, 1, Tag_ABI_enum_size(1)
     717                            .battr "aeabi", Tag_File, 1, Tag_ABI_optimization_goals(5)
     718                            .battr "aeabi", Tag_File, 1, Tag_ABI_FP_optimization_goals(0)
     719                            .battr "TI", Tag_File, 1, Tag_Bitfield_layout(2)
     720                            .battr "TI", Tag_File, 1, Tag_FP_interface(1)
     721                    
     722                    ;******************************************************************************
     723                    ;* TYPE INFORMATION                                                           *
     724                    ;******************************************************************************
     725                    
     726                    $C$DW$T$49      .dwtag  DW_TAG_enumeration_type
     727                            .dwattr $C$DW$T$49, DW_AT_byte_size(0x01)
     728                    $C$DW$37        .dwtag  DW_TAG_enumerator
     729                            .dwattr $C$DW$37, DW_AT_name("eRunning")
     730                            .dwattr $C$DW$37, DW_AT_const_value(0x00)
     731                            .dwattr $C$DW$37, DW_AT_decl_file("H:/EECS_388/TI_ARM_Projects/FreeRTOS823_LM3S1968_ASM/Source
     732                            .dwattr $C$DW$37, DW_AT_decl_line(0x72)
     733                            .dwattr $C$DW$37, DW_AT_decl_column(0x02)
     734                    
     735                    $C$DW$38        .dwtag  DW_TAG_enumerator
     736                            .dwattr $C$DW$38, DW_AT_name("eReady")
     737                            .dwattr $C$DW$38, DW_AT_const_value(0x01)
     738                            .dwattr $C$DW$38, DW_AT_decl_file("H:/EECS_388/TI_ARM_Projects/FreeRTOS823_LM3S1968_ASM/Source
     739                            .dwattr $C$DW$38, DW_AT_decl_line(0x73)
     740                            .dwattr $C$DW$38, DW_AT_decl_column(0x02)
     741                    
     742                    $C$DW$39        .dwtag  DW_TAG_enumerator
     743                            .dwattr $C$DW$39, DW_AT_name("eBlocked")
     744                            .dwattr $C$DW$39, DW_AT_const_value(0x02)
     745                            .dwattr $C$DW$39, DW_AT_decl_file("H:/EECS_388/TI_ARM_Projects/FreeRTOS823_LM3S1968_ASM/Source
     746                            .dwattr $C$DW$39, DW_AT_decl_line(0x74)
     747                            .dwattr $C$DW$39, DW_AT_decl_column(0x02)
     748                    
     749                    $C$DW$40        .dwtag  DW_TAG_enumerator
     750                            .dwattr $C$DW$40, DW_AT_name("eSuspended")
     751                            .dwattr $C$DW$40, DW_AT_const_value(0x03)
     752                            .dwattr $C$DW$40, DW_AT_decl_file("H:/EECS_388/TI_ARM_Projects/FreeRTOS823_LM3S1968_ASM/Source
     753                            .dwattr $C$DW$40, DW_AT_decl_line(0x75)
     754                            .dwattr $C$DW$40, DW_AT_decl_column(0x02)
     755                    
     756                    $C$DW$41        .dwtag  DW_TAG_enumerator
     757                            .dwattr $C$DW$41, DW_AT_name("eDeleted")
     758                            .dwattr $C$DW$41, DW_AT_const_value(0x04)
     759                            .dwattr $C$DW$41, DW_AT_decl_file("H:/EECS_388/TI_ARM_Projects/FreeRTOS823_LM3S1968_ASM/Source
     760                            .dwattr $C$DW$41, DW_AT_decl_line(0x76)
     761                            .dwattr $C$DW$41, DW_AT_decl_column(0x02)
     762                    
     763                            .dwattr $C$DW$T$49, DW_AT_decl_file("H:/EECS_388/TI_ARM_Projects/FreeRTOS823_LM3S1968_ASM/Sour
     764                            .dwattr $C$DW$T$49, DW_AT_decl_line(0x71)
     765                            .dwattr $C$DW$T$49, DW_AT_decl_column(0x01)
     766                            .dwendtag $C$DW$T$49
     767                    
     768                    $C$DW$T$50      .dwtag  DW_TAG_typedef
     769                            .dwattr $C$DW$T$50, DW_AT_name("eTaskState")
     770                            .dwattr $C$DW$T$50, DW_AT_type(*$C$DW$T$49)
TI ARM Assembler PC v15.12.1 Wed Nov 30 14:37:43 2016

Tools Copyright (c) 1996-2015 Texas Instruments Incorporated
port.asm                                                             PAGE   15

     771                            .dwattr $C$DW$T$50, DW_AT_language(DW_LANG_C)
     772                            .dwattr $C$DW$T$50, DW_AT_decl_file("H:/EECS_388/TI_ARM_Projects/FreeRTOS823_LM3S1968_ASM/Sour
     773                            .dwattr $C$DW$T$50, DW_AT_decl_line(0x77)
     774                            .dwattr $C$DW$T$50, DW_AT_decl_column(0x03)
     775                    
     776                    
     777                    $C$DW$T$55      .dwtag  DW_TAG_enumeration_type
     778                            .dwattr $C$DW$T$55, DW_AT_byte_size(0x01)
     779                    $C$DW$42        .dwtag  DW_TAG_enumerator
     780                            .dwattr $C$DW$42, DW_AT_name("eNoAction")
     781                            .dwattr $C$DW$42, DW_AT_const_value(0x00)
     782                            .dwattr $C$DW$42, DW_AT_decl_file("H:/EECS_388/TI_ARM_Projects/FreeRTOS823_LM3S1968_ASM/Source
     783                            .dwattr $C$DW$42, DW_AT_decl_line(0x7c)
     784                            .dwattr $C$DW$42, DW_AT_decl_column(0x02)
     785                    
     786                    $C$DW$43        .dwtag  DW_TAG_enumerator
     787                            .dwattr $C$DW$43, DW_AT_name("eSetBits")
     788                            .dwattr $C$DW$43, DW_AT_const_value(0x01)
     789                            .dwattr $C$DW$43, DW_AT_decl_file("H:/EECS_388/TI_ARM_Projects/FreeRTOS823_LM3S1968_ASM/Source
     790                            .dwattr $C$DW$43, DW_AT_decl_line(0x7d)
     791                            .dwattr $C$DW$43, DW_AT_decl_column(0x02)
     792                    
     793                    $C$DW$44        .dwtag  DW_TAG_enumerator
     794                            .dwattr $C$DW$44, DW_AT_name("eIncrement")
     795                            .dwattr $C$DW$44, DW_AT_const_value(0x02)
     796                            .dwattr $C$DW$44, DW_AT_decl_file("H:/EECS_388/TI_ARM_Projects/FreeRTOS823_LM3S1968_ASM/Source
     797                            .dwattr $C$DW$44, DW_AT_decl_line(0x7e)
     798                            .dwattr $C$DW$44, DW_AT_decl_column(0x02)
     799                    
     800                    $C$DW$45        .dwtag  DW_TAG_enumerator
     801                            .dwattr $C$DW$45, DW_AT_name("eSetValueWithOverwrite")
     802                            .dwattr $C$DW$45, DW_AT_const_value(0x03)
     803                            .dwattr $C$DW$45, DW_AT_decl_file("H:/EECS_388/TI_ARM_Projects/FreeRTOS823_LM3S1968_ASM/Source
     804                            .dwattr $C$DW$45, DW_AT_decl_line(0x7f)
     805                            .dwattr $C$DW$45, DW_AT_decl_column(0x02)
     806                    
     807                    $C$DW$46        .dwtag  DW_TAG_enumerator
     808                            .dwattr $C$DW$46, DW_AT_name("eSetValueWithoutOverwrite")
     809                            .dwattr $C$DW$46, DW_AT_const_value(0x04)
     810                            .dwattr $C$DW$46, DW_AT_decl_file("H:/EECS_388/TI_ARM_Projects/FreeRTOS823_LM3S1968_ASM/Source
     811                            .dwattr $C$DW$46, DW_AT_decl_line(0x80)
     812                            .dwattr $C$DW$46, DW_AT_decl_column(0x02)
     813                    
     814                            .dwattr $C$DW$T$55, DW_AT_decl_file("H:/EECS_388/TI_ARM_Projects/FreeRTOS823_LM3S1968_ASM/Sour
     815                            .dwattr $C$DW$T$55, DW_AT_decl_line(0x7b)
     816                            .dwattr $C$DW$T$55, DW_AT_decl_column(0x01)
     817                            .dwendtag $C$DW$T$55
     818                    
     819                    $C$DW$T$56      .dwtag  DW_TAG_typedef
     820                            .dwattr $C$DW$T$56, DW_AT_name("eNotifyAction")
     821                            .dwattr $C$DW$T$56, DW_AT_type(*$C$DW$T$55)
     822                            .dwattr $C$DW$T$56, DW_AT_language(DW_LANG_C)
     823                            .dwattr $C$DW$T$56, DW_AT_decl_file("H:/EECS_388/TI_ARM_Projects/FreeRTOS823_LM3S1968_ASM/Sour
     824                            .dwattr $C$DW$T$56, DW_AT_decl_line(0x81)
     825                            .dwattr $C$DW$T$56, DW_AT_decl_column(0x03)
TI ARM Assembler PC v15.12.1 Wed Nov 30 14:37:43 2016

Tools Copyright (c) 1996-2015 Texas Instruments Incorporated
port.asm                                                             PAGE   16

     826                    
     827                    
     828                    $C$DW$T$57      .dwtag  DW_TAG_enumeration_type
     829                            .dwattr $C$DW$T$57, DW_AT_byte_size(0x01)
     830                    $C$DW$47        .dwtag  DW_TAG_enumerator
     831                            .dwattr $C$DW$47, DW_AT_name("eAbortSleep")
     832                            .dwattr $C$DW$47, DW_AT_const_value(0x00)
     833                            .dwattr $C$DW$47, DW_AT_decl_file("H:/EECS_388/TI_ARM_Projects/FreeRTOS823_LM3S1968_ASM/Source
     834                            .dwattr $C$DW$47, DW_AT_decl_line(0xb5)
     835                            .dwattr $C$DW$47, DW_AT_decl_column(0x02)
     836                    
     837                    $C$DW$48        .dwtag  DW_TAG_enumerator
     838                            .dwattr $C$DW$48, DW_AT_name("eStandardSleep")
     839                            .dwattr $C$DW$48, DW_AT_const_value(0x01)
     840                            .dwattr $C$DW$48, DW_AT_decl_file("H:/EECS_388/TI_ARM_Projects/FreeRTOS823_LM3S1968_ASM/Source
     841                            .dwattr $C$DW$48, DW_AT_decl_line(0xb6)
     842                            .dwattr $C$DW$48, DW_AT_decl_column(0x02)
     843                    
     844                    $C$DW$49        .dwtag  DW_TAG_enumerator
     845                            .dwattr $C$DW$49, DW_AT_name("eNoTasksWaitingTimeout")
     846                            .dwattr $C$DW$49, DW_AT_const_value(0x02)
     847                            .dwattr $C$DW$49, DW_AT_decl_file("H:/EECS_388/TI_ARM_Projects/FreeRTOS823_LM3S1968_ASM/Source
     848                            .dwattr $C$DW$49, DW_AT_decl_line(0xb7)
     849                            .dwattr $C$DW$49, DW_AT_decl_column(0x02)
     850                    
     851                            .dwattr $C$DW$T$57, DW_AT_decl_file("H:/EECS_388/TI_ARM_Projects/FreeRTOS823_LM3S1968_ASM/Sour
     852                            .dwattr $C$DW$T$57, DW_AT_decl_line(0xb4)
     853                            .dwattr $C$DW$T$57, DW_AT_decl_column(0x01)
     854                            .dwendtag $C$DW$T$57
     855                    
     856                    $C$DW$T$58      .dwtag  DW_TAG_typedef
     857                            .dwattr $C$DW$T$58, DW_AT_name("eSleepModeStatus")
     858                            .dwattr $C$DW$T$58, DW_AT_type(*$C$DW$T$57)
     859                            .dwattr $C$DW$T$58, DW_AT_language(DW_LANG_C)
     860                            .dwattr $C$DW$T$58, DW_AT_decl_file("H:/EECS_388/TI_ARM_Projects/FreeRTOS823_LM3S1968_ASM/Sour
     861                            .dwattr $C$DW$T$58, DW_AT_decl_line(0xb8)
     862                            .dwattr $C$DW$T$58, DW_AT_decl_column(0x03)
     863                    
     864                    
     865                    $C$DW$T$22      .dwtag  DW_TAG_structure_type
     866                            .dwattr $C$DW$T$22, DW_AT_name("HeapRegion")
     867                            .dwattr $C$DW$T$22, DW_AT_byte_size(0x08)
     868                    $C$DW$50        .dwtag  DW_TAG_member
     869                            .dwattr $C$DW$50, DW_AT_type(*$C$DW$T$20)
     870                            .dwattr $C$DW$50, DW_AT_name("pucStartAddress")
     871                            .dwattr $C$DW$50, DW_AT_TI_symbol_name("pucStartAddress")
     872                            .dwattr $C$DW$50, DW_AT_data_member_location[DW_OP_plus_uconst 0x0]
     873                            .dwattr $C$DW$50, DW_AT_accessibility(DW_ACCESS_public)
     874                            .dwattr $C$DW$50, DW_AT_decl_file("H:\EECS_388\TI_ARM_Projects\FreeRTOS823_LM3S1968_ASM\Source
     875                            .dwattr $C$DW$50, DW_AT_decl_line(0x96)
     876                            .dwattr $C$DW$50, DW_AT_decl_column(0x0b)
     877                    
     878                    $C$DW$51        .dwtag  DW_TAG_member
     879                            .dwattr $C$DW$51, DW_AT_type(*$C$DW$T$21)
     880                            .dwattr $C$DW$51, DW_AT_name("xSizeInBytes")
TI ARM Assembler PC v15.12.1 Wed Nov 30 14:37:43 2016

Tools Copyright (c) 1996-2015 Texas Instruments Incorporated
port.asm                                                             PAGE   17

     881                            .dwattr $C$DW$51, DW_AT_TI_symbol_name("xSizeInBytes")
     882                            .dwattr $C$DW$51, DW_AT_data_member_location[DW_OP_plus_uconst 0x4]
     883                            .dwattr $C$DW$51, DW_AT_accessibility(DW_ACCESS_public)
     884                            .dwattr $C$DW$51, DW_AT_decl_file("H:\EECS_388\TI_ARM_Projects\FreeRTOS823_LM3S1968_ASM\Source
     885                            .dwattr $C$DW$51, DW_AT_decl_line(0x97)
     886                            .dwattr $C$DW$51, DW_AT_decl_column(0x09)
     887                    
     888                            .dwattr $C$DW$T$22, DW_AT_decl_file("H:\EECS_388\TI_ARM_Projects\FreeRTOS823_LM3S1968_ASM\Sour
     889                            .dwattr $C$DW$T$22, DW_AT_decl_line(0x94)
     890                            .dwattr $C$DW$T$22, DW_AT_decl_column(0x10)
     891                            .dwendtag $C$DW$T$22
     892                    
     893                    $C$DW$T$59      .dwtag  DW_TAG_typedef
     894                            .dwattr $C$DW$T$59, DW_AT_name("HeapRegion_t")
     895                            .dwattr $C$DW$T$59, DW_AT_type(*$C$DW$T$22)
     896                            .dwattr $C$DW$T$59, DW_AT_language(DW_LANG_C)
     897                            .dwattr $C$DW$T$59, DW_AT_decl_file("H:\EECS_388\TI_ARM_Projects\FreeRTOS823_LM3S1968_ASM\Sour
     898                            .dwattr $C$DW$T$59, DW_AT_decl_line(0x98)
     899                            .dwattr $C$DW$T$59, DW_AT_decl_column(0x03)
     900                    
     901                    $C$DW$T$2       .dwtag  DW_TAG_unspecified_type
     902                            .dwattr $C$DW$T$2, DW_AT_name("void")
     903                    
     904                    $C$DW$T$3       .dwtag  DW_TAG_pointer_type
     905                            .dwattr $C$DW$T$3, DW_AT_type(*$C$DW$T$2)
     906                            .dwattr $C$DW$T$3, DW_AT_address_class(0x20)
     907                    
     908                    $C$DW$T$48      .dwtag  DW_TAG_typedef
     909                            .dwattr $C$DW$T$48, DW_AT_name("TaskHandle_t")
     910                            .dwattr $C$DW$T$48, DW_AT_type(*$C$DW$T$3)
     911                            .dwattr $C$DW$T$48, DW_AT_language(DW_LANG_C)
     912                            .dwattr $C$DW$T$48, DW_AT_decl_file("H:/EECS_388/TI_ARM_Projects/FreeRTOS823_LM3S1968_ASM/Sour
     913                            .dwattr $C$DW$T$48, DW_AT_decl_line(0x67)
     914                            .dwattr $C$DW$T$48, DW_AT_decl_column(0x10)
     915                    
     916                    
     917                    $C$DW$T$35      .dwtag  DW_TAG_subroutine_type
     918                            .dwattr $C$DW$T$35, DW_AT_language(DW_LANG_C)
     919                    $C$DW$52        .dwtag  DW_TAG_formal_parameter
     920                            .dwattr $C$DW$52, DW_AT_type(*$C$DW$T$3)
     921                    
     922                            .dwendtag $C$DW$T$35
     923                    
     924                    $C$DW$T$36      .dwtag  DW_TAG_pointer_type
     925                            .dwattr $C$DW$T$36, DW_AT_type(*$C$DW$T$35)
     926                            .dwattr $C$DW$T$36, DW_AT_address_class(0x20)
     927                    
     928                    $C$DW$T$37      .dwtag  DW_TAG_typedef
     929                            .dwattr $C$DW$T$37, DW_AT_name("TaskFunction_t")
     930                            .dwattr $C$DW$T$37, DW_AT_type(*$C$DW$T$36)
     931                            .dwattr $C$DW$T$37, DW_AT_language(DW_LANG_C)
     932                            .dwattr $C$DW$T$37, DW_AT_decl_file("H:\EECS_388\TI_ARM_Projects\FreeRTOS823_LM3S1968_ASM\Sour
     933                            .dwattr $C$DW$T$37, DW_AT_decl_line(0x4d)
     934                            .dwattr $C$DW$T$37, DW_AT_decl_column(0x10)
     935                    
TI ARM Assembler PC v15.12.1 Wed Nov 30 14:37:43 2016

Tools Copyright (c) 1996-2015 Texas Instruments Incorporated
port.asm                                                             PAGE   18

     936                    $C$DW$T$4       .dwtag  DW_TAG_base_type
     937                            .dwattr $C$DW$T$4, DW_AT_encoding(DW_ATE_boolean)
     938                            .dwattr $C$DW$T$4, DW_AT_name("bool")
     939                            .dwattr $C$DW$T$4, DW_AT_byte_size(0x01)
     940                    
     941                    $C$DW$T$5       .dwtag  DW_TAG_base_type
     942                            .dwattr $C$DW$T$5, DW_AT_encoding(DW_ATE_signed_char)
     943                            .dwattr $C$DW$T$5, DW_AT_name("signed char")
     944                            .dwattr $C$DW$T$5, DW_AT_byte_size(0x01)
     945                    
     946                    $C$DW$T$64      .dwtag  DW_TAG_typedef
     947                            .dwattr $C$DW$T$64, DW_AT_name("int8_t")
     948                            .dwattr $C$DW$T$64, DW_AT_type(*$C$DW$T$5)
     949                            .dwattr $C$DW$T$64, DW_AT_language(DW_LANG_C)
     950                            .dwattr $C$DW$T$64, DW_AT_decl_file("C:/TI_CodeComposer/ccsv6/tools/compiler/ti-cgt-arm_15.12.
     951                            .dwattr $C$DW$T$64, DW_AT_decl_line(0x2a)
     952                            .dwattr $C$DW$T$64, DW_AT_decl_column(0x1d)
     953                    
     954                    $C$DW$T$65      .dwtag  DW_TAG_typedef
     955                            .dwattr $C$DW$T$65, DW_AT_name("int_least8_t")
     956                            .dwattr $C$DW$T$65, DW_AT_type(*$C$DW$T$64)
     957                            .dwattr $C$DW$T$65, DW_AT_language(DW_LANG_C)
     958                            .dwattr $C$DW$T$65, DW_AT_decl_file("C:/TI_CodeComposer/ccsv6/tools/compiler/ti-cgt-arm_15.12.
     959                            .dwattr $C$DW$T$65, DW_AT_decl_line(0x37)
     960                            .dwattr $C$DW$T$65, DW_AT_decl_column(0x17)
     961                    
     962                    $C$DW$T$6       .dwtag  DW_TAG_base_type
     963                            .dwattr $C$DW$T$6, DW_AT_encoding(DW_ATE_unsigned_char)
     964                            .dwattr $C$DW$T$6, DW_AT_name("unsigned char")
     965                            .dwattr $C$DW$T$6, DW_AT_byte_size(0x01)
     966                    
     967                    $C$DW$T$19      .dwtag  DW_TAG_typedef
     968                            .dwattr $C$DW$T$19, DW_AT_name("uint8_t")
     969                            .dwattr $C$DW$T$19, DW_AT_type(*$C$DW$T$6)
     970                            .dwattr $C$DW$T$19, DW_AT_language(DW_LANG_C)
     971                            .dwattr $C$DW$T$19, DW_AT_decl_file("C:/TI_CodeComposer/ccsv6/tools/compiler/ti-cgt-arm_15.12.
     972                            .dwattr $C$DW$T$19, DW_AT_decl_line(0x2b)
     973                            .dwattr $C$DW$T$19, DW_AT_decl_column(0x1c)
     974                    
     975                    $C$DW$T$20      .dwtag  DW_TAG_pointer_type
     976                            .dwattr $C$DW$T$20, DW_AT_type(*$C$DW$T$19)
     977                            .dwattr $C$DW$T$20, DW_AT_address_class(0x20)
     978                    
     979                    $C$DW$T$66      .dwtag  DW_TAG_typedef
     980                            .dwattr $C$DW$T$66, DW_AT_name("portCHAR")
     981                            .dwattr $C$DW$T$66, DW_AT_type(*$C$DW$T$19)
     982                            .dwattr $C$DW$T$66, DW_AT_language(DW_LANG_C)
     983                            .dwattr $C$DW$T$66, DW_AT_decl_file("H:/EECS_388/TI_ARM_Projects/FreeRTOS823_LM3S1968_ASM/Sour
     984                            .dwattr $C$DW$T$66, DW_AT_decl_line(0x66)
     985                            .dwattr $C$DW$T$66, DW_AT_decl_column(0x12)
     986                    
     987                    $C$DW$T$67      .dwtag  DW_TAG_typedef
     988                            .dwattr $C$DW$T$67, DW_AT_name("uint_least8_t")
     989                            .dwattr $C$DW$T$67, DW_AT_type(*$C$DW$T$19)
     990                            .dwattr $C$DW$T$67, DW_AT_language(DW_LANG_C)
TI ARM Assembler PC v15.12.1 Wed Nov 30 14:37:43 2016

Tools Copyright (c) 1996-2015 Texas Instruments Incorporated
port.asm                                                             PAGE   19

     991                            .dwattr $C$DW$T$67, DW_AT_decl_file("C:/TI_CodeComposer/ccsv6/tools/compiler/ti-cgt-arm_15.12.
     992                            .dwattr $C$DW$T$67, DW_AT_decl_line(0x38)
     993                            .dwattr $C$DW$T$67, DW_AT_decl_column(0x16)
     994                    
     995                    $C$DW$T$7       .dwtag  DW_TAG_base_type
     996                            .dwattr $C$DW$T$7, DW_AT_encoding(DW_ATE_signed_char)
     997                            .dwattr $C$DW$T$7, DW_AT_name("wchar_t")
     998                            .dwattr $C$DW$T$7, DW_AT_byte_size(0x02)
     999                    
    1000                    $C$DW$T$8       .dwtag  DW_TAG_base_type
    1001                            .dwattr $C$DW$T$8, DW_AT_encoding(DW_ATE_signed)
    1002                            .dwattr $C$DW$T$8, DW_AT_name("short")
    1003                            .dwattr $C$DW$T$8, DW_AT_byte_size(0x02)
    1004                    
    1005                    $C$DW$T$68      .dwtag  DW_TAG_typedef
    1006                            .dwattr $C$DW$T$68, DW_AT_name("int16_t")
    1007                            .dwattr $C$DW$T$68, DW_AT_type(*$C$DW$T$8)
    1008                            .dwattr $C$DW$T$68, DW_AT_language(DW_LANG_C)
    1009                            .dwattr $C$DW$T$68, DW_AT_decl_file("C:/TI_CodeComposer/ccsv6/tools/compiler/ti-cgt-arm_15.12.
    1010                            .dwattr $C$DW$T$68, DW_AT_decl_line(0x2c)
    1011                            .dwattr $C$DW$T$68, DW_AT_decl_column(0x1d)
    1012                    
    1013                    $C$DW$T$69      .dwtag  DW_TAG_typedef
    1014                            .dwattr $C$DW$T$69, DW_AT_name("int_least16_t")
    1015                            .dwattr $C$DW$T$69, DW_AT_type(*$C$DW$T$68)
    1016                            .dwattr $C$DW$T$69, DW_AT_language(DW_LANG_C)
    1017                            .dwattr $C$DW$T$69, DW_AT_decl_file("C:/TI_CodeComposer/ccsv6/tools/compiler/ti-cgt-arm_15.12.
    1018                            .dwattr $C$DW$T$69, DW_AT_decl_line(0x3a)
    1019                            .dwattr $C$DW$T$69, DW_AT_decl_column(0x17)
    1020                    
    1021                    $C$DW$T$70      .dwtag  DW_TAG_typedef
    1022                            .dwattr $C$DW$T$70, DW_AT_name("portSHORT")
    1023                            .dwattr $C$DW$T$70, DW_AT_type(*$C$DW$T$68)
    1024                            .dwattr $C$DW$T$70, DW_AT_language(DW_LANG_C)
    1025                            .dwattr $C$DW$T$70, DW_AT_decl_file("H:/EECS_388/TI_ARM_Projects/FreeRTOS823_LM3S1968_ASM/Sour
    1026                            .dwattr $C$DW$T$70, DW_AT_decl_line(0x6a)
    1027                            .dwattr $C$DW$T$70, DW_AT_decl_column(0x12)
    1028                    
    1029                    $C$DW$T$9       .dwtag  DW_TAG_base_type
    1030                            .dwattr $C$DW$T$9, DW_AT_encoding(DW_ATE_unsigned)
    1031                            .dwattr $C$DW$T$9, DW_AT_name("unsigned short")
    1032                            .dwattr $C$DW$T$9, DW_AT_byte_size(0x02)
    1033                    
    1034                    $C$DW$T$42      .dwtag  DW_TAG_typedef
    1035                            .dwattr $C$DW$T$42, DW_AT_name("uint16_t")
    1036                            .dwattr $C$DW$T$42, DW_AT_type(*$C$DW$T$9)
    1037                            .dwattr $C$DW$T$42, DW_AT_language(DW_LANG_C)
    1038                            .dwattr $C$DW$T$42, DW_AT_decl_file("C:/TI_CodeComposer/ccsv6/tools/compiler/ti-cgt-arm_15.12.
    1039                            .dwattr $C$DW$T$42, DW_AT_decl_line(0x2d)
    1040                            .dwattr $C$DW$T$42, DW_AT_decl_column(0x1c)
    1041                    
    1042                    $C$DW$T$71      .dwtag  DW_TAG_typedef
    1043                            .dwattr $C$DW$T$71, DW_AT_name("uint_least16_t")
    1044                            .dwattr $C$DW$T$71, DW_AT_type(*$C$DW$T$42)
    1045                            .dwattr $C$DW$T$71, DW_AT_language(DW_LANG_C)
TI ARM Assembler PC v15.12.1 Wed Nov 30 14:37:43 2016

Tools Copyright (c) 1996-2015 Texas Instruments Incorporated
port.asm                                                             PAGE   20

    1046                            .dwattr $C$DW$T$71, DW_AT_decl_file("C:/TI_CodeComposer/ccsv6/tools/compiler/ti-cgt-arm_15.12.
    1047                            .dwattr $C$DW$T$71, DW_AT_decl_line(0x3b)
    1048                            .dwattr $C$DW$T$71, DW_AT_decl_column(0x16)
    1049                    
    1050                    $C$DW$T$72      .dwtag  DW_TAG_typedef
    1051                            .dwattr $C$DW$T$72, DW_AT_name("wchar_t")
    1052                            .dwattr $C$DW$T$72, DW_AT_type(*$C$DW$T$9)
    1053                            .dwattr $C$DW$T$72, DW_AT_language(DW_LANG_C)
    1054                            .dwattr $C$DW$T$72, DW_AT_decl_file("C:/TI_CodeComposer/ccsv6/tools/compiler/ti-cgt-arm_15.12.
    1055                            .dwattr $C$DW$T$72, DW_AT_decl_line(0x41)
    1056                            .dwattr $C$DW$T$72, DW_AT_decl_column(0x1a)
    1057                    
    1058                    $C$DW$T$10      .dwtag  DW_TAG_base_type
    1059                            .dwattr $C$DW$T$10, DW_AT_encoding(DW_ATE_signed)
    1060                            .dwattr $C$DW$T$10, DW_AT_name("int")
    1061                            .dwattr $C$DW$T$10, DW_AT_byte_size(0x04)
    1062                    
    1063                    $C$DW$T$52      .dwtag  DW_TAG_typedef
    1064                            .dwattr $C$DW$T$52, DW_AT_name("int32_t")
    1065                            .dwattr $C$DW$T$52, DW_AT_type(*$C$DW$T$10)
    1066                            .dwattr $C$DW$T$52, DW_AT_language(DW_LANG_C)
    1067                            .dwattr $C$DW$T$52, DW_AT_decl_file("C:/TI_CodeComposer/ccsv6/tools/compiler/ti-cgt-arm_15.12.
    1068                            .dwattr $C$DW$T$52, DW_AT_decl_line(0x2e)
    1069                            .dwattr $C$DW$T$52, DW_AT_decl_column(0x1d)
    1070                    
    1071                    $C$DW$T$53      .dwtag  DW_TAG_typedef
    1072                            .dwattr $C$DW$T$53, DW_AT_name("BaseType_t")
    1073                            .dwattr $C$DW$T$53, DW_AT_type(*$C$DW$T$52)
    1074                            .dwattr $C$DW$T$53, DW_AT_language(DW_LANG_C)
    1075                            .dwattr $C$DW$T$53, DW_AT_decl_file("H:/EECS_388/TI_ARM_Projects/FreeRTOS823_LM3S1968_ASM/Sour
    1076                            .dwattr $C$DW$T$53, DW_AT_decl_line(0x6f)
    1077                            .dwattr $C$DW$T$53, DW_AT_decl_column(0x12)
    1078                    
    1079                    
    1080                    $C$DW$T$75      .dwtag  DW_TAG_subroutine_type
    1081                            .dwattr $C$DW$T$75, DW_AT_type(*$C$DW$T$53)
    1082                            .dwattr $C$DW$T$75, DW_AT_language(DW_LANG_C)
    1083                    $C$DW$53        .dwtag  DW_TAG_formal_parameter
    1084                            .dwattr $C$DW$53, DW_AT_type(*$C$DW$T$3)
    1085                    
    1086                            .dwendtag $C$DW$T$75
    1087                    
    1088                    $C$DW$T$76      .dwtag  DW_TAG_pointer_type
    1089                            .dwattr $C$DW$T$76, DW_AT_type(*$C$DW$T$75)
    1090                            .dwattr $C$DW$T$76, DW_AT_address_class(0x20)
    1091                    
    1092                    $C$DW$T$77      .dwtag  DW_TAG_typedef
    1093                            .dwattr $C$DW$T$77, DW_AT_name("TaskHookFunction_t")
    1094                            .dwattr $C$DW$T$77, DW_AT_type(*$C$DW$T$76)
    1095                            .dwattr $C$DW$T$77, DW_AT_language(DW_LANG_C)
    1096                            .dwattr $C$DW$T$77, DW_AT_decl_file("H:/EECS_388/TI_ARM_Projects/FreeRTOS823_LM3S1968_ASM/Sour
    1097                            .dwattr $C$DW$T$77, DW_AT_decl_line(0x6d)
    1098                            .dwattr $C$DW$T$77, DW_AT_decl_column(0x16)
    1099                    
    1100                    $C$DW$T$78      .dwtag  DW_TAG_typedef
TI ARM Assembler PC v15.12.1 Wed Nov 30 14:37:43 2016

Tools Copyright (c) 1996-2015 Texas Instruments Incorporated
port.asm                                                             PAGE   21

    1101                            .dwattr $C$DW$T$78, DW_AT_name("int_fast16_t")
    1102                            .dwattr $C$DW$T$78, DW_AT_type(*$C$DW$T$52)
    1103                            .dwattr $C$DW$T$78, DW_AT_language(DW_LANG_C)
    1104                            .dwattr $C$DW$T$78, DW_AT_decl_file("C:/TI_CodeComposer/ccsv6/tools/compiler/ti-cgt-arm_15.12.
    1105                            .dwattr $C$DW$T$78, DW_AT_decl_line(0x47)
    1106                            .dwattr $C$DW$T$78, DW_AT_decl_column(0x17)
    1107                    
    1108                    $C$DW$T$79      .dwtag  DW_TAG_typedef
    1109                            .dwattr $C$DW$T$79, DW_AT_name("int_fast32_t")
    1110                            .dwattr $C$DW$T$79, DW_AT_type(*$C$DW$T$52)
    1111                            .dwattr $C$DW$T$79, DW_AT_language(DW_LANG_C)
    1112                            .dwattr $C$DW$T$79, DW_AT_decl_file("C:/TI_CodeComposer/ccsv6/tools/compiler/ti-cgt-arm_15.12.
    1113                            .dwattr $C$DW$T$79, DW_AT_decl_line(0x4a)
    1114                            .dwattr $C$DW$T$79, DW_AT_decl_column(0x17)
    1115                    
    1116                    $C$DW$T$80      .dwtag  DW_TAG_typedef
    1117                            .dwattr $C$DW$T$80, DW_AT_name("int_fast8_t")
    1118                            .dwattr $C$DW$T$80, DW_AT_type(*$C$DW$T$52)
    1119                            .dwattr $C$DW$T$80, DW_AT_language(DW_LANG_C)
    1120                            .dwattr $C$DW$T$80, DW_AT_decl_file("C:/TI_CodeComposer/ccsv6/tools/compiler/ti-cgt-arm_15.12.
    1121                            .dwattr $C$DW$T$80, DW_AT_decl_line(0x45)
    1122                            .dwattr $C$DW$T$80, DW_AT_decl_column(0x17)
    1123                    
    1124                    $C$DW$T$81      .dwtag  DW_TAG_typedef
    1125                            .dwattr $C$DW$T$81, DW_AT_name("int_least32_t")
    1126                            .dwattr $C$DW$T$81, DW_AT_type(*$C$DW$T$52)
    1127                            .dwattr $C$DW$T$81, DW_AT_language(DW_LANG_C)
    1128                            .dwattr $C$DW$T$81, DW_AT_decl_file("C:/TI_CodeComposer/ccsv6/tools/compiler/ti-cgt-arm_15.12.
    1129                            .dwattr $C$DW$T$81, DW_AT_decl_line(0x3c)
    1130                            .dwattr $C$DW$T$81, DW_AT_decl_column(0x17)
    1131                    
    1132                    $C$DW$T$82      .dwtag  DW_TAG_typedef
    1133                            .dwattr $C$DW$T$82, DW_AT_name("portBASE_TYPE")
    1134                            .dwattr $C$DW$T$82, DW_AT_type(*$C$DW$T$52)
    1135                            .dwattr $C$DW$T$82, DW_AT_language(DW_LANG_C)
    1136                            .dwattr $C$DW$T$82, DW_AT_decl_file("H:/EECS_388/TI_ARM_Projects/FreeRTOS823_LM3S1968_ASM/Sour
    1137                            .dwattr $C$DW$T$82, DW_AT_decl_line(0x6c)
    1138                            .dwattr $C$DW$T$82, DW_AT_decl_column(0x12)
    1139                    
    1140                    $C$DW$T$84      .dwtag  DW_TAG_typedef
    1141                            .dwattr $C$DW$T$84, DW_AT_name("portLONG")
    1142                            .dwattr $C$DW$T$84, DW_AT_type(*$C$DW$T$52)
    1143                            .dwattr $C$DW$T$84, DW_AT_language(DW_LANG_C)
    1144                            .dwattr $C$DW$T$84, DW_AT_decl_file("H:/EECS_388/TI_ARM_Projects/FreeRTOS823_LM3S1968_ASM/Sour
    1145                            .dwattr $C$DW$T$84, DW_AT_decl_line(0x69)
    1146                            .dwattr $C$DW$T$84, DW_AT_decl_column(0x12)
    1147                    
    1148                    $C$DW$T$85      .dwtag  DW_TAG_typedef
    1149                            .dwattr $C$DW$T$85, DW_AT_name("intptr_t")
    1150                            .dwattr $C$DW$T$85, DW_AT_type(*$C$DW$T$10)
    1151                            .dwattr $C$DW$T$85, DW_AT_language(DW_LANG_C)
    1152                            .dwattr $C$DW$T$85, DW_AT_decl_file("C:/TI_CodeComposer/ccsv6/tools/compiler/ti-cgt-arm_15.12.
    1153                            .dwattr $C$DW$T$85, DW_AT_decl_line(0x52)
    1154                            .dwattr $C$DW$T$85, DW_AT_decl_column(0x1a)
    1155                    
TI ARM Assembler PC v15.12.1 Wed Nov 30 14:37:43 2016

Tools Copyright (c) 1996-2015 Texas Instruments Incorporated
port.asm                                                             PAGE   22

    1156                    $C$DW$T$86      .dwtag  DW_TAG_typedef
    1157                            .dwattr $C$DW$T$86, DW_AT_name("ptrdiff_t")
    1158                            .dwattr $C$DW$T$86, DW_AT_type(*$C$DW$T$10)
    1159                            .dwattr $C$DW$T$86, DW_AT_language(DW_LANG_C)
    1160                            .dwattr $C$DW$T$86, DW_AT_decl_file("C:/TI_CodeComposer/ccsv6/tools/compiler/ti-cgt-arm_15.12.
    1161                            .dwattr $C$DW$T$86, DW_AT_decl_line(0x36)
    1162                            .dwattr $C$DW$T$86, DW_AT_decl_column(0x1c)
    1163                    
    1164                    $C$DW$T$11      .dwtag  DW_TAG_base_type
    1165                            .dwattr $C$DW$T$11, DW_AT_encoding(DW_ATE_unsigned)
    1166                            .dwattr $C$DW$T$11, DW_AT_name("unsigned int")
    1167                            .dwattr $C$DW$T$11, DW_AT_byte_size(0x04)
    1168                    
    1169                    $C$DW$T$21      .dwtag  DW_TAG_typedef
    1170                            .dwattr $C$DW$T$21, DW_AT_name("size_t")
    1171                            .dwattr $C$DW$T$21, DW_AT_type(*$C$DW$T$11)
    1172                            .dwattr $C$DW$T$21, DW_AT_language(DW_LANG_C)
    1173                            .dwattr $C$DW$T$21, DW_AT_decl_file("C:/TI_CodeComposer/ccsv6/tools/compiler/ti-cgt-arm_15.12.
    1174                            .dwattr $C$DW$T$21, DW_AT_decl_line(0x3a)
    1175                            .dwattr $C$DW$T$21, DW_AT_decl_column(0x19)
    1176                    
    1177                    $C$DW$T$24      .dwtag  DW_TAG_typedef
    1178                            .dwattr $C$DW$T$24, DW_AT_name("uint32_t")
    1179                            .dwattr $C$DW$T$24, DW_AT_type(*$C$DW$T$11)
    1180                            .dwattr $C$DW$T$24, DW_AT_language(DW_LANG_C)
    1181                            .dwattr $C$DW$T$24, DW_AT_decl_file("C:/TI_CodeComposer/ccsv6/tools/compiler/ti-cgt-arm_15.12.
    1182                            .dwattr $C$DW$T$24, DW_AT_decl_line(0x2f)
    1183                            .dwattr $C$DW$T$24, DW_AT_decl_column(0x1c)
    1184                    
    1185                    $C$DW$T$43      .dwtag  DW_TAG_typedef
    1186                            .dwattr $C$DW$T$43, DW_AT_name("StackType_t")
    1187                            .dwattr $C$DW$T$43, DW_AT_type(*$C$DW$T$24)
    1188                            .dwattr $C$DW$T$43, DW_AT_language(DW_LANG_C)
    1189                            .dwattr $C$DW$T$43, DW_AT_decl_file("H:/EECS_388/TI_ARM_Projects/FreeRTOS823_LM3S1968_ASM/Sour
    1190                            .dwattr $C$DW$T$43, DW_AT_decl_line(0x6e)
    1191                            .dwattr $C$DW$T$43, DW_AT_decl_column(0x12)
    1192                    
    1193                    $C$DW$T$44      .dwtag  DW_TAG_pointer_type
    1194                            .dwattr $C$DW$T$44, DW_AT_type(*$C$DW$T$43)
    1195                            .dwattr $C$DW$T$44, DW_AT_address_class(0x20)
    1196                    
    1197                    $C$DW$T$30      .dwtag  DW_TAG_typedef
    1198                            .dwattr $C$DW$T$30, DW_AT_name("TickType_t")
    1199                            .dwattr $C$DW$T$30, DW_AT_type(*$C$DW$T$24)
    1200                            .dwattr $C$DW$T$30, DW_AT_language(DW_LANG_C)
    1201                            .dwattr $C$DW$T$30, DW_AT_decl_file("H:/EECS_388/TI_ARM_Projects/FreeRTOS823_LM3S1968_ASM/Sour
    1202                            .dwattr $C$DW$T$30, DW_AT_decl_line(0x76)
    1203                            .dwattr $C$DW$T$30, DW_AT_decl_column(0x13)
    1204                    
    1205                    $C$DW$T$25      .dwtag  DW_TAG_typedef
    1206                            .dwattr $C$DW$T$25, DW_AT_name("UBaseType_t")
    1207                            .dwattr $C$DW$T$25, DW_AT_type(*$C$DW$T$24)
    1208                            .dwattr $C$DW$T$25, DW_AT_language(DW_LANG_C)
    1209                            .dwattr $C$DW$T$25, DW_AT_decl_file("H:/EECS_388/TI_ARM_Projects/FreeRTOS823_LM3S1968_ASM/Sour
    1210                            .dwattr $C$DW$T$25, DW_AT_decl_line(0x70)
TI ARM Assembler PC v15.12.1 Wed Nov 30 14:37:43 2016

Tools Copyright (c) 1996-2015 Texas Instruments Incorporated
port.asm                                                             PAGE   23

    1211                            .dwattr $C$DW$T$25, DW_AT_decl_column(0x12)
    1212                    
    1213                    $C$DW$T$87      .dwtag  DW_TAG_typedef
    1214                            .dwattr $C$DW$T$87, DW_AT_name("portSTACK_TYPE")
    1215                            .dwattr $C$DW$T$87, DW_AT_type(*$C$DW$T$24)
    1216                            .dwattr $C$DW$T$87, DW_AT_language(DW_LANG_C)
    1217                            .dwattr $C$DW$T$87, DW_AT_decl_file("H:/EECS_388/TI_ARM_Projects/FreeRTOS823_LM3S1968_ASM/Sour
    1218                            .dwattr $C$DW$T$87, DW_AT_decl_line(0x6b)
    1219                            .dwattr $C$DW$T$87, DW_AT_decl_column(0x12)
    1220                    
    1221                    $C$DW$T$88      .dwtag  DW_TAG_pointer_type
    1222                            .dwattr $C$DW$T$88, DW_AT_type(*$C$DW$T$87)
    1223                            .dwattr $C$DW$T$88, DW_AT_address_class(0x20)
    1224                    
    1225                    $C$DW$T$90      .dwtag  DW_TAG_typedef
    1226                            .dwattr $C$DW$T$90, DW_AT_name("uint_fast16_t")
    1227                            .dwattr $C$DW$T$90, DW_AT_type(*$C$DW$T$24)
    1228                            .dwattr $C$DW$T$90, DW_AT_language(DW_LANG_C)
    1229                            .dwattr $C$DW$T$90, DW_AT_decl_file("C:/TI_CodeComposer/ccsv6/tools/compiler/ti-cgt-arm_15.12.
    1230                            .dwattr $C$DW$T$90, DW_AT_decl_line(0x48)
    1231                            .dwattr $C$DW$T$90, DW_AT_decl_column(0x16)
    1232                    
    1233                    $C$DW$T$91      .dwtag  DW_TAG_typedef
    1234                            .dwattr $C$DW$T$91, DW_AT_name("uint_fast32_t")
    1235                            .dwattr $C$DW$T$91, DW_AT_type(*$C$DW$T$24)
    1236                            .dwattr $C$DW$T$91, DW_AT_language(DW_LANG_C)
    1237                            .dwattr $C$DW$T$91, DW_AT_decl_file("C:/TI_CodeComposer/ccsv6/tools/compiler/ti-cgt-arm_15.12.
    1238                            .dwattr $C$DW$T$91, DW_AT_decl_line(0x4b)
    1239                            .dwattr $C$DW$T$91, DW_AT_decl_column(0x16)
    1240                    
    1241                    $C$DW$T$92      .dwtag  DW_TAG_typedef
    1242                            .dwattr $C$DW$T$92, DW_AT_name("uint_fast8_t")
    1243                            .dwattr $C$DW$T$92, DW_AT_type(*$C$DW$T$24)
    1244                            .dwattr $C$DW$T$92, DW_AT_language(DW_LANG_C)
    1245                            .dwattr $C$DW$T$92, DW_AT_decl_file("C:/TI_CodeComposer/ccsv6/tools/compiler/ti-cgt-arm_15.12.
    1246                            .dwattr $C$DW$T$92, DW_AT_decl_line(0x46)
    1247                            .dwattr $C$DW$T$92, DW_AT_decl_column(0x16)
    1248                    
    1249                    $C$DW$T$93      .dwtag  DW_TAG_typedef
    1250                            .dwattr $C$DW$T$93, DW_AT_name("uint_least32_t")
    1251                            .dwattr $C$DW$T$93, DW_AT_type(*$C$DW$T$24)
    1252                            .dwattr $C$DW$T$93, DW_AT_language(DW_LANG_C)
    1253                            .dwattr $C$DW$T$93, DW_AT_decl_file("C:/TI_CodeComposer/ccsv6/tools/compiler/ti-cgt-arm_15.12.
    1254                            .dwattr $C$DW$T$93, DW_AT_decl_line(0x3d)
    1255                            .dwattr $C$DW$T$93, DW_AT_decl_column(0x16)
    1256                    
    1257                    $C$DW$T$94      .dwtag  DW_TAG_typedef
    1258                            .dwattr $C$DW$T$94, DW_AT_name("uintptr_t")
    1259                            .dwattr $C$DW$T$94, DW_AT_type(*$C$DW$T$11)
    1260                            .dwattr $C$DW$T$94, DW_AT_language(DW_LANG_C)
    1261                            .dwattr $C$DW$T$94, DW_AT_decl_file("C:/TI_CodeComposer/ccsv6/tools/compiler/ti-cgt-arm_15.12.
    1262                            .dwattr $C$DW$T$94, DW_AT_decl_line(0x53)
    1263                            .dwattr $C$DW$T$94, DW_AT_decl_column(0x1a)
    1264                    
    1265                    $C$DW$T$12      .dwtag  DW_TAG_base_type
TI ARM Assembler PC v15.12.1 Wed Nov 30 14:37:43 2016

Tools Copyright (c) 1996-2015 Texas Instruments Incorporated
port.asm                                                             PAGE   24

    1266                            .dwattr $C$DW$T$12, DW_AT_encoding(DW_ATE_signed)
    1267                            .dwattr $C$DW$T$12, DW_AT_name("long")
    1268                            .dwattr $C$DW$T$12, DW_AT_byte_size(0x04)
    1269                    
    1270                    $C$DW$T$13      .dwtag  DW_TAG_base_type
    1271                            .dwattr $C$DW$T$13, DW_AT_encoding(DW_ATE_unsigned)
    1272                            .dwattr $C$DW$T$13, DW_AT_name("unsigned long")
    1273                            .dwattr $C$DW$T$13, DW_AT_byte_size(0x04)
    1274                    
    1275                    $C$DW$T$14      .dwtag  DW_TAG_base_type
    1276                            .dwattr $C$DW$T$14, DW_AT_encoding(DW_ATE_signed)
    1277                            .dwattr $C$DW$T$14, DW_AT_name("long long")
    1278                            .dwattr $C$DW$T$14, DW_AT_byte_size(0x08)
    1279                    
    1280                    $C$DW$T$99      .dwtag  DW_TAG_typedef
    1281                            .dwattr $C$DW$T$99, DW_AT_name("int64_t")
    1282                            .dwattr $C$DW$T$99, DW_AT_type(*$C$DW$T$14)
    1283                            .dwattr $C$DW$T$99, DW_AT_language(DW_LANG_C)
    1284                            .dwattr $C$DW$T$99, DW_AT_decl_file("C:/TI_CodeComposer/ccsv6/tools/compiler/ti-cgt-arm_15.12.
    1285                            .dwattr $C$DW$T$99, DW_AT_decl_line(0x32)
    1286                            .dwattr $C$DW$T$99, DW_AT_decl_column(0x21)
    1287                    
    1288                    $C$DW$T$100     .dwtag  DW_TAG_typedef
    1289                            .dwattr $C$DW$T$100, DW_AT_name("int_fast64_t")
    1290                            .dwattr $C$DW$T$100, DW_AT_type(*$C$DW$T$99)
    1291                            .dwattr $C$DW$T$100, DW_AT_language(DW_LANG_C)
    1292                            .dwattr $C$DW$T$100, DW_AT_decl_file("C:/TI_CodeComposer/ccsv6/tools/compiler/ti-cgt-arm_15.12
    1293                            .dwattr $C$DW$T$100, DW_AT_decl_line(0x4e)
    1294                            .dwattr $C$DW$T$100, DW_AT_decl_column(0x17)
    1295                    
    1296                    $C$DW$T$101     .dwtag  DW_TAG_typedef
    1297                            .dwattr $C$DW$T$101, DW_AT_name("int_least64_t")
    1298                            .dwattr $C$DW$T$101, DW_AT_type(*$C$DW$T$99)
    1299                            .dwattr $C$DW$T$101, DW_AT_language(DW_LANG_C)
    1300                            .dwattr $C$DW$T$101, DW_AT_decl_file("C:/TI_CodeComposer/ccsv6/tools/compiler/ti-cgt-arm_15.12
    1301                            .dwattr $C$DW$T$101, DW_AT_decl_line(0x40)
    1302                            .dwattr $C$DW$T$101, DW_AT_decl_column(0x17)
    1303                    
    1304                    $C$DW$T$102     .dwtag  DW_TAG_typedef
    1305                            .dwattr $C$DW$T$102, DW_AT_name("portDOUBLE")
    1306                            .dwattr $C$DW$T$102, DW_AT_type(*$C$DW$T$99)
    1307                            .dwattr $C$DW$T$102, DW_AT_language(DW_LANG_C)
    1308                            .dwattr $C$DW$T$102, DW_AT_decl_file("H:/EECS_388/TI_ARM_Projects/FreeRTOS823_LM3S1968_ASM/Sou
    1309                            .dwattr $C$DW$T$102, DW_AT_decl_line(0x68)
    1310                            .dwattr $C$DW$T$102, DW_AT_decl_column(0x12)
    1311                    
    1312                    $C$DW$T$103     .dwtag  DW_TAG_typedef
    1313                            .dwattr $C$DW$T$103, DW_AT_name("intmax_t")
    1314                            .dwattr $C$DW$T$103, DW_AT_type(*$C$DW$T$14)
    1315                            .dwattr $C$DW$T$103, DW_AT_language(DW_LANG_C)
    1316                            .dwattr $C$DW$T$103, DW_AT_decl_file("C:/TI_CodeComposer/ccsv6/tools/compiler/ti-cgt-arm_15.12
    1317                            .dwattr $C$DW$T$103, DW_AT_decl_line(0x56)
    1318                            .dwattr $C$DW$T$103, DW_AT_decl_column(0x20)
    1319                    
    1320                    $C$DW$T$15      .dwtag  DW_TAG_base_type
TI ARM Assembler PC v15.12.1 Wed Nov 30 14:37:43 2016

Tools Copyright (c) 1996-2015 Texas Instruments Incorporated
port.asm                                                             PAGE   25

    1321                            .dwattr $C$DW$T$15, DW_AT_encoding(DW_ATE_unsigned)
    1322                            .dwattr $C$DW$T$15, DW_AT_name("unsigned long long")
    1323                            .dwattr $C$DW$T$15, DW_AT_byte_size(0x08)
    1324                    
    1325                    $C$DW$T$104     .dwtag  DW_TAG_typedef
    1326                            .dwattr $C$DW$T$104, DW_AT_name("uint64_t")
    1327                            .dwattr $C$DW$T$104, DW_AT_type(*$C$DW$T$15)
    1328                            .dwattr $C$DW$T$104, DW_AT_language(DW_LANG_C)
    1329                            .dwattr $C$DW$T$104, DW_AT_decl_file("C:/TI_CodeComposer/ccsv6/tools/compiler/ti-cgt-arm_15.12
    1330                            .dwattr $C$DW$T$104, DW_AT_decl_line(0x33)
    1331                            .dwattr $C$DW$T$104, DW_AT_decl_column(0x20)
    1332                    
    1333                    $C$DW$T$105     .dwtag  DW_TAG_typedef
    1334                            .dwattr $C$DW$T$105, DW_AT_name("uint_fast64_t")
    1335                            .dwattr $C$DW$T$105, DW_AT_type(*$C$DW$T$104)
    1336                            .dwattr $C$DW$T$105, DW_AT_language(DW_LANG_C)
    1337                            .dwattr $C$DW$T$105, DW_AT_decl_file("C:/TI_CodeComposer/ccsv6/tools/compiler/ti-cgt-arm_15.12
    1338                            .dwattr $C$DW$T$105, DW_AT_decl_line(0x4f)
    1339                            .dwattr $C$DW$T$105, DW_AT_decl_column(0x16)
    1340                    
    1341                    $C$DW$T$106     .dwtag  DW_TAG_typedef
    1342                            .dwattr $C$DW$T$106, DW_AT_name("uint_least64_t")
    1343                            .dwattr $C$DW$T$106, DW_AT_type(*$C$DW$T$104)
    1344                            .dwattr $C$DW$T$106, DW_AT_language(DW_LANG_C)
    1345                            .dwattr $C$DW$T$106, DW_AT_decl_file("C:/TI_CodeComposer/ccsv6/tools/compiler/ti-cgt-arm_15.12
    1346                            .dwattr $C$DW$T$106, DW_AT_decl_line(0x41)
    1347                            .dwattr $C$DW$T$106, DW_AT_decl_column(0x16)
    1348                    
    1349                    $C$DW$T$107     .dwtag  DW_TAG_typedef
    1350                            .dwattr $C$DW$T$107, DW_AT_name("uintmax_t")
    1351                            .dwattr $C$DW$T$107, DW_AT_type(*$C$DW$T$15)
    1352                            .dwattr $C$DW$T$107, DW_AT_language(DW_LANG_C)
    1353                            .dwattr $C$DW$T$107, DW_AT_decl_file("C:/TI_CodeComposer/ccsv6/tools/compiler/ti-cgt-arm_15.12
    1354                            .dwattr $C$DW$T$107, DW_AT_decl_line(0x57)
    1355                            .dwattr $C$DW$T$107, DW_AT_decl_column(0x20)
    1356                    
    1357                    $C$DW$T$16      .dwtag  DW_TAG_base_type
    1358                            .dwattr $C$DW$T$16, DW_AT_encoding(DW_ATE_float)
    1359                            .dwattr $C$DW$T$16, DW_AT_name("float")
    1360                            .dwattr $C$DW$T$16, DW_AT_byte_size(0x04)
    1361                    
    1362                    $C$DW$T$108     .dwtag  DW_TAG_typedef
    1363                            .dwattr $C$DW$T$108, DW_AT_name("portFLOAT")
    1364                            .dwattr $C$DW$T$108, DW_AT_type(*$C$DW$T$16)
    1365                            .dwattr $C$DW$T$108, DW_AT_language(DW_LANG_C)
    1366                            .dwattr $C$DW$T$108, DW_AT_decl_file("H:/EECS_388/TI_ARM_Projects/FreeRTOS823_LM3S1968_ASM/Sou
    1367                            .dwattr $C$DW$T$108, DW_AT_decl_line(0x67)
    1368                            .dwattr $C$DW$T$108, DW_AT_decl_column(0x10)
    1369                    
    1370                    $C$DW$T$17      .dwtag  DW_TAG_base_type
    1371                            .dwattr $C$DW$T$17, DW_AT_encoding(DW_ATE_float)
    1372                            .dwattr $C$DW$T$17, DW_AT_name("double")
    1373                            .dwattr $C$DW$T$17, DW_AT_byte_size(0x08)
    1374                    
    1375                    $C$DW$T$18      .dwtag  DW_TAG_base_type
TI ARM Assembler PC v15.12.1 Wed Nov 30 14:37:43 2016

Tools Copyright (c) 1996-2015 Texas Instruments Incorporated
port.asm                                                             PAGE   26

    1376                            .dwattr $C$DW$T$18, DW_AT_encoding(DW_ATE_float)
    1377                            .dwattr $C$DW$T$18, DW_AT_name("long double")
    1378                            .dwattr $C$DW$T$18, DW_AT_byte_size(0x08)
    1379                    
    1380                    $C$DW$T$39      .dwtag  DW_TAG_const_type
    1381                            .dwattr $C$DW$T$39, DW_AT_type(*$C$DW$T$6)
    1382                    
    1383                    $C$DW$T$40      .dwtag  DW_TAG_pointer_type
    1384                            .dwattr $C$DW$T$40, DW_AT_type(*$C$DW$T$39)
    1385                            .dwattr $C$DW$T$40, DW_AT_address_class(0x20)
    1386                    
    1387                    $C$DW$T$41      .dwtag  DW_TAG_const_type
    1388                            .dwattr $C$DW$T$41, DW_AT_type(*$C$DW$T$40)
    1389                    
    1390                    
    1391                    $C$DW$T$23      .dwtag  DW_TAG_structure_type
    1392                            .dwattr $C$DW$T$23, DW_AT_name("__va_list")
    1393                            .dwattr $C$DW$T$23, DW_AT_byte_size(0x04)
    1394                    $C$DW$54        .dwtag  DW_TAG_member
    1395                            .dwattr $C$DW$54, DW_AT_type(*$C$DW$T$3)
    1396                            .dwattr $C$DW$54, DW_AT_name("__ap")
    1397                            .dwattr $C$DW$54, DW_AT_TI_symbol_name("__ap")
    1398                            .dwattr $C$DW$54, DW_AT_data_member_location[DW_OP_plus_uconst 0x0]
    1399                            .dwattr $C$DW$54, DW_AT_accessibility(DW_ACCESS_public)
    1400                            .dwattr $C$DW$54, DW_AT_decl_file("C:/TI_CodeComposer/ccsv6/tools/compiler/ti-cgt-arm_15.12.1.
    1401                            .dwattr $C$DW$54, DW_AT_decl_line(0x38)
    1402                            .dwattr $C$DW$54, DW_AT_decl_column(0x0c)
    1403                    
    1404                            .dwattr $C$DW$T$23, DW_AT_decl_file("C:/TI_CodeComposer/ccsv6/tools/compiler/ti-cgt-arm_15.12.
    1405                            .dwattr $C$DW$T$23, DW_AT_decl_line(0x37)
    1406                            .dwattr $C$DW$T$23, DW_AT_decl_column(0x10)
    1407                            .dwendtag $C$DW$T$23
    1408                    
    1409                    $C$DW$T$109     .dwtag  DW_TAG_typedef
    1410                            .dwattr $C$DW$T$109, DW_AT_name("va_list")
    1411                            .dwattr $C$DW$T$109, DW_AT_type(*$C$DW$T$23)
    1412                            .dwattr $C$DW$T$109, DW_AT_language(DW_LANG_C)
    1413                            .dwattr $C$DW$T$109, DW_AT_decl_file("C:/TI_CodeComposer/ccsv6/tools/compiler/ti-cgt-arm_15.12
    1414                            .dwattr $C$DW$T$109, DW_AT_decl_line(0x39)
    1415                            .dwattr $C$DW$T$109, DW_AT_decl_column(0x03)
    1416                    
    1417                    
    1418                    $C$DW$T$29      .dwtag  DW_TAG_structure_type
    1419                            .dwattr $C$DW$T$29, DW_AT_name("xLIST")
    1420                            .dwattr $C$DW$T$29, DW_AT_byte_size(0x14)
    1421                    $C$DW$55        .dwtag  DW_TAG_member
    1422                            .dwattr $C$DW$55, DW_AT_type(*$C$DW$T$25)
    1423                            .dwattr $C$DW$55, DW_AT_name("uxNumberOfItems")
    1424                            .dwattr $C$DW$55, DW_AT_TI_symbol_name("uxNumberOfItems")
    1425                            .dwattr $C$DW$55, DW_AT_data_member_location[DW_OP_plus_uconst 0x0]
    1426                            .dwattr $C$DW$55, DW_AT_accessibility(DW_ACCESS_public)
    1427                            .dwattr $C$DW$55, DW_AT_decl_file("H:\EECS_388\TI_ARM_Projects\FreeRTOS823_LM3S1968_ASM\Source
    1428                            .dwattr $C$DW$55, DW_AT_decl_line(0xd0)
    1429                            .dwattr $C$DW$55, DW_AT_decl_column(0x22)
    1430                    
TI ARM Assembler PC v15.12.1 Wed Nov 30 14:37:43 2016

Tools Copyright (c) 1996-2015 Texas Instruments Incorporated
port.asm                                                             PAGE   27

    1431                    $C$DW$56        .dwtag  DW_TAG_member
    1432                            .dwattr $C$DW$56, DW_AT_type(*$C$DW$T$27)
    1433                            .dwattr $C$DW$56, DW_AT_name("pxIndex")
    1434                            .dwattr $C$DW$56, DW_AT_TI_symbol_name("pxIndex")
    1435                            .dwattr $C$DW$56, DW_AT_data_member_location[DW_OP_plus_uconst 0x4]
    1436                            .dwattr $C$DW$56, DW_AT_accessibility(DW_ACCESS_public)
    1437                            .dwattr $C$DW$56, DW_AT_decl_file("H:\EECS_388\TI_ARM_Projects\FreeRTOS823_LM3S1968_ASM\Source
    1438                            .dwattr $C$DW$56, DW_AT_decl_line(0xd1)
    1439                            .dwattr $C$DW$56, DW_AT_decl_column(0x23)
    1440                    
    1441                    $C$DW$57        .dwtag  DW_TAG_member
    1442                            .dwattr $C$DW$57, DW_AT_type(*$C$DW$T$28)
    1443                            .dwattr $C$DW$57, DW_AT_name("xListEnd")
    1444                            .dwattr $C$DW$57, DW_AT_TI_symbol_name("xListEnd")
    1445                            .dwattr $C$DW$57, DW_AT_data_member_location[DW_OP_plus_uconst 0x8]
    1446                            .dwattr $C$DW$57, DW_AT_accessibility(DW_ACCESS_public)
    1447                            .dwattr $C$DW$57, DW_AT_decl_file("H:\EECS_388\TI_ARM_Projects\FreeRTOS823_LM3S1968_ASM\Source
    1448                            .dwattr $C$DW$57, DW_AT_decl_line(0xd2)
    1449                            .dwattr $C$DW$57, DW_AT_decl_column(0x11)
    1450                    
    1451                            .dwattr $C$DW$T$29, DW_AT_decl_file("H:\EECS_388\TI_ARM_Projects\FreeRTOS823_LM3S1968_ASM\Sour
    1452                            .dwattr $C$DW$T$29, DW_AT_decl_line(0xcd)
    1453                            .dwattr $C$DW$T$29, DW_AT_decl_column(0x10)
    1454                            .dwendtag $C$DW$T$29
    1455                    
    1456                    $C$DW$T$110     .dwtag  DW_TAG_typedef
    1457                            .dwattr $C$DW$T$110, DW_AT_name("List_t")
    1458                            .dwattr $C$DW$T$110, DW_AT_type(*$C$DW$T$29)
    1459                            .dwattr $C$DW$T$110, DW_AT_language(DW_LANG_C)
    1460                            .dwattr $C$DW$T$110, DW_AT_decl_file("H:\EECS_388\TI_ARM_Projects\FreeRTOS823_LM3S1968_ASM\Sou
    1461                            .dwattr $C$DW$T$110, DW_AT_decl_line(0xd4)
    1462                            .dwattr $C$DW$T$110, DW_AT_decl_column(0x03)
    1463                    
    1464                    
    1465                    $C$DW$T$32      .dwtag  DW_TAG_structure_type
    1466                            .dwattr $C$DW$T$32, DW_AT_name("xLIST_ITEM")
    1467                            .dwattr $C$DW$T$32, DW_AT_byte_size(0x14)
    1468                    $C$DW$58        .dwtag  DW_TAG_member
    1469                            .dwattr $C$DW$58, DW_AT_type(*$C$DW$T$30)
    1470                            .dwattr $C$DW$58, DW_AT_name("xItemValue")
    1471                            .dwattr $C$DW$58, DW_AT_TI_symbol_name("xItemValue")
    1472                            .dwattr $C$DW$58, DW_AT_data_member_location[DW_OP_plus_uconst 0x0]
    1473                            .dwattr $C$DW$58, DW_AT_accessibility(DW_ACCESS_public)
    1474                            .dwattr $C$DW$58, DW_AT_decl_file("H:\EECS_388\TI_ARM_Projects\FreeRTOS823_LM3S1968_ASM\Source
    1475                            .dwattr $C$DW$58, DW_AT_decl_line(0xb8)
    1476                            .dwattr $C$DW$58, DW_AT_decl_column(0x21)
    1477                    
    1478                    $C$DW$59        .dwtag  DW_TAG_member
    1479                            .dwattr $C$DW$59, DW_AT_type(*$C$DW$T$31)
    1480                            .dwattr $C$DW$59, DW_AT_name("pxNext")
    1481                            .dwattr $C$DW$59, DW_AT_TI_symbol_name("pxNext")
    1482                            .dwattr $C$DW$59, DW_AT_data_member_location[DW_OP_plus_uconst 0x4]
    1483                            .dwattr $C$DW$59, DW_AT_accessibility(DW_ACCESS_public)
    1484                            .dwattr $C$DW$59, DW_AT_decl_file("H:\EECS_388\TI_ARM_Projects\FreeRTOS823_LM3S1968_ASM\Source
    1485                            .dwattr $C$DW$59, DW_AT_decl_line(0xb9)
TI ARM Assembler PC v15.12.1 Wed Nov 30 14:37:43 2016

Tools Copyright (c) 1996-2015 Texas Instruments Incorporated
port.asm                                                             PAGE   28

    1486                            .dwattr $C$DW$59, DW_AT_decl_column(0x2a)
    1487                    
    1488                    $C$DW$60        .dwtag  DW_TAG_member
    1489                            .dwattr $C$DW$60, DW_AT_type(*$C$DW$T$31)
    1490                            .dwattr $C$DW$60, DW_AT_name("pxPrevious")
    1491                            .dwattr $C$DW$60, DW_AT_TI_symbol_name("pxPrevious")
    1492                            .dwattr $C$DW$60, DW_AT_data_member_location[DW_OP_plus_uconst 0x8]
    1493                            .dwattr $C$DW$60, DW_AT_accessibility(DW_ACCESS_public)
    1494                            .dwattr $C$DW$60, DW_AT_decl_file("H:\EECS_388\TI_ARM_Projects\FreeRTOS823_LM3S1968_ASM\Source
    1495                            .dwattr $C$DW$60, DW_AT_decl_line(0xba)
    1496                            .dwattr $C$DW$60, DW_AT_decl_column(0x2a)
    1497                    
    1498                    $C$DW$61        .dwtag  DW_TAG_member
    1499                            .dwattr $C$DW$61, DW_AT_type(*$C$DW$T$3)
    1500                            .dwattr $C$DW$61, DW_AT_name("pvOwner")
    1501                            .dwattr $C$DW$61, DW_AT_TI_symbol_name("pvOwner")
    1502                            .dwattr $C$DW$61, DW_AT_data_member_location[DW_OP_plus_uconst 0xc]
    1503                            .dwattr $C$DW$61, DW_AT_accessibility(DW_ACCESS_public)
    1504                            .dwattr $C$DW$61, DW_AT_decl_file("H:\EECS_388\TI_ARM_Projects\FreeRTOS823_LM3S1968_ASM\Source
    1505                            .dwattr $C$DW$61, DW_AT_decl_line(0xbb)
    1506                            .dwattr $C$DW$61, DW_AT_decl_column(0x09)
    1507                    
    1508                    $C$DW$62        .dwtag  DW_TAG_member
    1509                            .dwattr $C$DW$62, DW_AT_type(*$C$DW$T$3)
    1510                            .dwattr $C$DW$62, DW_AT_name("pvContainer")
    1511                            .dwattr $C$DW$62, DW_AT_TI_symbol_name("pvContainer")
    1512                            .dwattr $C$DW$62, DW_AT_data_member_location[DW_OP_plus_uconst 0x10]
    1513                            .dwattr $C$DW$62, DW_AT_accessibility(DW_ACCESS_public)
    1514                            .dwattr $C$DW$62, DW_AT_decl_file("H:\EECS_388\TI_ARM_Projects\FreeRTOS823_LM3S1968_ASM\Source
    1515                            .dwattr $C$DW$62, DW_AT_decl_line(0xbc)
    1516                            .dwattr $C$DW$62, DW_AT_decl_column(0x1d)
    1517                    
    1518                            .dwattr $C$DW$T$32, DW_AT_decl_file("H:\EECS_388\TI_ARM_Projects\FreeRTOS823_LM3S1968_ASM\Sour
    1519                            .dwattr $C$DW$T$32, DW_AT_decl_line(0xb5)
    1520                            .dwattr $C$DW$T$32, DW_AT_decl_column(0x08)
    1521                            .dwendtag $C$DW$T$32
    1522                    
    1523                    $C$DW$T$26      .dwtag  DW_TAG_typedef
    1524                            .dwattr $C$DW$T$26, DW_AT_name("ListItem_t")
    1525                            .dwattr $C$DW$T$26, DW_AT_type(*$C$DW$T$32)
    1526                            .dwattr $C$DW$T$26, DW_AT_language(DW_LANG_C)
    1527                            .dwattr $C$DW$T$26, DW_AT_decl_file("H:\EECS_388\TI_ARM_Projects\FreeRTOS823_LM3S1968_ASM\Sour
    1528                            .dwattr $C$DW$T$26, DW_AT_decl_line(0xbf)
    1529                            .dwattr $C$DW$T$26, DW_AT_decl_column(0x1b)
    1530                    
    1531                    $C$DW$T$27      .dwtag  DW_TAG_pointer_type
    1532                            .dwattr $C$DW$T$27, DW_AT_type(*$C$DW$T$26)
    1533                            .dwattr $C$DW$T$27, DW_AT_address_class(0x20)
    1534                    
    1535                    $C$DW$T$31      .dwtag  DW_TAG_pointer_type
    1536                            .dwattr $C$DW$T$31, DW_AT_type(*$C$DW$T$32)
    1537                            .dwattr $C$DW$T$31, DW_AT_address_class(0x20)
    1538                    
    1539                    
    1540                    $C$DW$T$33      .dwtag  DW_TAG_structure_type
TI ARM Assembler PC v15.12.1 Wed Nov 30 14:37:43 2016

Tools Copyright (c) 1996-2015 Texas Instruments Incorporated
port.asm                                                             PAGE   29

    1541                            .dwattr $C$DW$T$33, DW_AT_name("xMEMORY_REGION")
    1542                            .dwattr $C$DW$T$33, DW_AT_byte_size(0x0c)
    1543                    $C$DW$63        .dwtag  DW_TAG_member
    1544                            .dwattr $C$DW$63, DW_AT_type(*$C$DW$T$3)
    1545                            .dwattr $C$DW$63, DW_AT_name("pvBaseAddress")
    1546                            .dwattr $C$DW$63, DW_AT_TI_symbol_name("pvBaseAddress")
    1547                            .dwattr $C$DW$63, DW_AT_data_member_location[DW_OP_plus_uconst 0x0]
    1548                            .dwattr $C$DW$63, DW_AT_accessibility(DW_ACCESS_public)
    1549                            .dwattr $C$DW$63, DW_AT_decl_file("H:/EECS_388/TI_ARM_Projects/FreeRTOS823_LM3S1968_ASM/Source
    1550                            .dwattr $C$DW$63, DW_AT_decl_line(0x91)
    1551                            .dwattr $C$DW$63, DW_AT_decl_column(0x08)
    1552                    
    1553                    $C$DW$64        .dwtag  DW_TAG_member
    1554                            .dwattr $C$DW$64, DW_AT_type(*$C$DW$T$24)
    1555                            .dwattr $C$DW$64, DW_AT_name("ulLengthInBytes")
    1556                            .dwattr $C$DW$64, DW_AT_TI_symbol_name("ulLengthInBytes")
    1557                            .dwattr $C$DW$64, DW_AT_data_member_location[DW_OP_plus_uconst 0x4]
    1558                            .dwattr $C$DW$64, DW_AT_accessibility(DW_ACCESS_public)
    1559                            .dwattr $C$DW$64, DW_AT_decl_file("H:/EECS_388/TI_ARM_Projects/FreeRTOS823_LM3S1968_ASM/Source
    1560                            .dwattr $C$DW$64, DW_AT_decl_line(0x92)
    1561                            .dwattr $C$DW$64, DW_AT_decl_column(0x0b)
    1562                    
    1563                    $C$DW$65        .dwtag  DW_TAG_member
    1564                            .dwattr $C$DW$65, DW_AT_type(*$C$DW$T$24)
    1565                            .dwattr $C$DW$65, DW_AT_name("ulParameters")
    1566                            .dwattr $C$DW$65, DW_AT_TI_symbol_name("ulParameters")
    1567                            .dwattr $C$DW$65, DW_AT_data_member_location[DW_OP_plus_uconst 0x8]
    1568                            .dwattr $C$DW$65, DW_AT_accessibility(DW_ACCESS_public)
    1569                            .dwattr $C$DW$65, DW_AT_decl_file("H:/EECS_388/TI_ARM_Projects/FreeRTOS823_LM3S1968_ASM/Source
    1570                            .dwattr $C$DW$65, DW_AT_decl_line(0x93)
    1571                            .dwattr $C$DW$65, DW_AT_decl_column(0x0b)
    1572                    
    1573                            .dwattr $C$DW$T$33, DW_AT_decl_file("H:/EECS_388/TI_ARM_Projects/FreeRTOS823_LM3S1968_ASM/Sour
    1574                            .dwattr $C$DW$T$33, DW_AT_decl_line(0x8f)
    1575                            .dwattr $C$DW$T$33, DW_AT_decl_column(0x10)
    1576                            .dwendtag $C$DW$T$33
    1577                    
    1578                    $C$DW$T$45      .dwtag  DW_TAG_typedef
    1579                            .dwattr $C$DW$T$45, DW_AT_name("MemoryRegion_t")
    1580                            .dwattr $C$DW$T$45, DW_AT_type(*$C$DW$T$33)
    1581                            .dwattr $C$DW$T$45, DW_AT_language(DW_LANG_C)
    1582                            .dwattr $C$DW$T$45, DW_AT_decl_file("H:/EECS_388/TI_ARM_Projects/FreeRTOS823_LM3S1968_ASM/Sour
    1583                            .dwattr $C$DW$T$45, DW_AT_decl_line(0x94)
    1584                            .dwattr $C$DW$T$45, DW_AT_decl_column(0x03)
    1585                    
    1586                    
    1587                    $C$DW$T$46      .dwtag  DW_TAG_array_type
    1588                            .dwattr $C$DW$T$46, DW_AT_type(*$C$DW$T$45)
    1589                            .dwattr $C$DW$T$46, DW_AT_language(DW_LANG_C)
    1590                            .dwattr $C$DW$T$46, DW_AT_byte_size(0x0c)
    1591                    $C$DW$66        .dwtag  DW_TAG_subrange_type
    1592                            .dwattr $C$DW$66, DW_AT_upper_bound(0x00)
    1593                    
    1594                            .dwendtag $C$DW$T$46
    1595                    
TI ARM Assembler PC v15.12.1 Wed Nov 30 14:37:43 2016

Tools Copyright (c) 1996-2015 Texas Instruments Incorporated
port.asm                                                             PAGE   30

    1596                    
    1597                    $C$DW$T$34      .dwtag  DW_TAG_structure_type
    1598                            .dwattr $C$DW$T$34, DW_AT_name("xMINI_LIST_ITEM")
    1599                            .dwattr $C$DW$T$34, DW_AT_byte_size(0x0c)
    1600                    $C$DW$67        .dwtag  DW_TAG_member
    1601                            .dwattr $C$DW$67, DW_AT_type(*$C$DW$T$30)
    1602                            .dwattr $C$DW$67, DW_AT_name("xItemValue")
    1603                            .dwattr $C$DW$67, DW_AT_TI_symbol_name("xItemValue")
    1604                            .dwattr $C$DW$67, DW_AT_data_member_location[DW_OP_plus_uconst 0x0]
    1605                            .dwattr $C$DW$67, DW_AT_accessibility(DW_ACCESS_public)
    1606                            .dwattr $C$DW$67, DW_AT_decl_file("H:\EECS_388\TI_ARM_Projects\FreeRTOS823_LM3S1968_ASM\Source
    1607                            .dwattr $C$DW$67, DW_AT_decl_line(0xc4)
    1608                            .dwattr $C$DW$67, DW_AT_decl_column(0x21)
    1609                    
    1610                    $C$DW$68        .dwtag  DW_TAG_member
    1611                            .dwattr $C$DW$68, DW_AT_type(*$C$DW$T$31)
    1612                            .dwattr $C$DW$68, DW_AT_name("pxNext")
    1613                            .dwattr $C$DW$68, DW_AT_TI_symbol_name("pxNext")
    1614                            .dwattr $C$DW$68, DW_AT_data_member_location[DW_OP_plus_uconst 0x4]
    1615                            .dwattr $C$DW$68, DW_AT_accessibility(DW_ACCESS_public)
    1616                            .dwattr $C$DW$68, DW_AT_decl_file("H:\EECS_388\TI_ARM_Projects\FreeRTOS823_LM3S1968_ASM\Source
    1617                            .dwattr $C$DW$68, DW_AT_decl_line(0xc5)
    1618                            .dwattr $C$DW$68, DW_AT_decl_column(0x2a)
    1619                    
    1620                    $C$DW$69        .dwtag  DW_TAG_member
    1621                            .dwattr $C$DW$69, DW_AT_type(*$C$DW$T$31)
    1622                            .dwattr $C$DW$69, DW_AT_name("pxPrevious")
    1623                            .dwattr $C$DW$69, DW_AT_TI_symbol_name("pxPrevious")
    1624                            .dwattr $C$DW$69, DW_AT_data_member_location[DW_OP_plus_uconst 0x8]
    1625                            .dwattr $C$DW$69, DW_AT_accessibility(DW_ACCESS_public)
    1626                            .dwattr $C$DW$69, DW_AT_decl_file("H:\EECS_388\TI_ARM_Projects\FreeRTOS823_LM3S1968_ASM\Source
    1627                            .dwattr $C$DW$69, DW_AT_decl_line(0xc6)
    1628                            .dwattr $C$DW$69, DW_AT_decl_column(0x2a)
    1629                    
    1630                            .dwattr $C$DW$T$34, DW_AT_decl_file("H:\EECS_388\TI_ARM_Projects\FreeRTOS823_LM3S1968_ASM\Sour
    1631                            .dwattr $C$DW$T$34, DW_AT_decl_line(0xc1)
    1632                            .dwattr $C$DW$T$34, DW_AT_decl_column(0x08)
    1633                            .dwendtag $C$DW$T$34
    1634                    
    1635                    $C$DW$T$28      .dwtag  DW_TAG_typedef
    1636                            .dwattr $C$DW$T$28, DW_AT_name("MiniListItem_t")
    1637                            .dwattr $C$DW$T$28, DW_AT_type(*$C$DW$T$34)
    1638                            .dwattr $C$DW$T$28, DW_AT_language(DW_LANG_C)
    1639                            .dwattr $C$DW$T$28, DW_AT_decl_file("H:\EECS_388\TI_ARM_Projects\FreeRTOS823_LM3S1968_ASM\Sour
    1640                            .dwattr $C$DW$T$28, DW_AT_decl_line(0xc8)
    1641                            .dwattr $C$DW$T$28, DW_AT_decl_column(0x20)
    1642                    
    1643                    
    1644                    $C$DW$T$47      .dwtag  DW_TAG_structure_type
    1645                            .dwattr $C$DW$T$47, DW_AT_name("xTASK_PARAMETERS")
    1646                            .dwattr $C$DW$T$47, DW_AT_byte_size(0x24)
    1647                    $C$DW$70        .dwtag  DW_TAG_member
    1648                            .dwattr $C$DW$70, DW_AT_type(*$C$DW$T$37)
    1649                            .dwattr $C$DW$70, DW_AT_name("pvTaskCode")
    1650                            .dwattr $C$DW$70, DW_AT_TI_symbol_name("pvTaskCode")
TI ARM Assembler PC v15.12.1 Wed Nov 30 14:37:43 2016

Tools Copyright (c) 1996-2015 Texas Instruments Incorporated
port.asm                                                             PAGE   31

    1651                            .dwattr $C$DW$70, DW_AT_data_member_location[DW_OP_plus_uconst 0x0]
    1652                            .dwattr $C$DW$70, DW_AT_accessibility(DW_ACCESS_public)
    1653                            .dwattr $C$DW$70, DW_AT_decl_file("H:/EECS_388/TI_ARM_Projects/FreeRTOS823_LM3S1968_ASM/Source
    1654                            .dwattr $C$DW$70, DW_AT_decl_line(0x9b)
    1655                            .dwattr $C$DW$70, DW_AT_decl_column(0x11)
    1656                    
    1657                    $C$DW$71        .dwtag  DW_TAG_member
    1658                            .dwattr $C$DW$71, DW_AT_type(*$C$DW$T$41)
    1659                            .dwattr $C$DW$71, DW_AT_name("pcName")
    1660                            .dwattr $C$DW$71, DW_AT_TI_symbol_name("pcName")
    1661                            .dwattr $C$DW$71, DW_AT_data_member_location[DW_OP_plus_uconst 0x4]
    1662                            .dwattr $C$DW$71, DW_AT_accessibility(DW_ACCESS_public)
    1663                            .dwattr $C$DW$71, DW_AT_decl_file("H:/EECS_388/TI_ARM_Projects/FreeRTOS823_LM3S1968_ASM/Source
    1664                            .dwattr $C$DW$71, DW_AT_decl_line(0x9c)
    1665                            .dwattr $C$DW$71, DW_AT_decl_column(0x15)
    1666                    
    1667                    $C$DW$72        .dwtag  DW_TAG_member
    1668                            .dwattr $C$DW$72, DW_AT_type(*$C$DW$T$42)
    1669                            .dwattr $C$DW$72, DW_AT_name("usStackDepth")
    1670                            .dwattr $C$DW$72, DW_AT_TI_symbol_name("usStackDepth")
    1671                            .dwattr $C$DW$72, DW_AT_data_member_location[DW_OP_plus_uconst 0x8]
    1672                            .dwattr $C$DW$72, DW_AT_accessibility(DW_ACCESS_public)
    1673                            .dwattr $C$DW$72, DW_AT_decl_file("H:/EECS_388/TI_ARM_Projects/FreeRTOS823_LM3S1968_ASM/Source
    1674                            .dwattr $C$DW$72, DW_AT_decl_line(0x9d)
    1675                            .dwattr $C$DW$72, DW_AT_decl_column(0x0b)
    1676                    
    1677                    $C$DW$73        .dwtag  DW_TAG_member
    1678                            .dwattr $C$DW$73, DW_AT_type(*$C$DW$T$3)
    1679                            .dwattr $C$DW$73, DW_AT_name("pvParameters")
    1680                            .dwattr $C$DW$73, DW_AT_TI_symbol_name("pvParameters")
    1681                            .dwattr $C$DW$73, DW_AT_data_member_location[DW_OP_plus_uconst 0xc]
    1682                            .dwattr $C$DW$73, DW_AT_accessibility(DW_ACCESS_public)
    1683                            .dwattr $C$DW$73, DW_AT_decl_file("H:/EECS_388/TI_ARM_Projects/FreeRTOS823_LM3S1968_ASM/Source
    1684                            .dwattr $C$DW$73, DW_AT_decl_line(0x9e)
    1685                            .dwattr $C$DW$73, DW_AT_decl_column(0x08)
    1686                    
    1687                    $C$DW$74        .dwtag  DW_TAG_member
    1688                            .dwattr $C$DW$74, DW_AT_type(*$C$DW$T$25)
    1689                            .dwattr $C$DW$74, DW_AT_name("uxPriority")
    1690                            .dwattr $C$DW$74, DW_AT_TI_symbol_name("uxPriority")
    1691                            .dwattr $C$DW$74, DW_AT_data_member_location[DW_OP_plus_uconst 0x10]
    1692                            .dwattr $C$DW$74, DW_AT_accessibility(DW_ACCESS_public)
    1693                            .dwattr $C$DW$74, DW_AT_decl_file("H:/EECS_388/TI_ARM_Projects/FreeRTOS823_LM3S1968_ASM/Source
    1694                            .dwattr $C$DW$74, DW_AT_decl_line(0x9f)
    1695                            .dwattr $C$DW$74, DW_AT_decl_column(0x0e)
    1696                    
    1697                    $C$DW$75        .dwtag  DW_TAG_member
    1698                            .dwattr $C$DW$75, DW_AT_type(*$C$DW$T$44)
    1699                            .dwattr $C$DW$75, DW_AT_name("puxStackBuffer")
    1700                            .dwattr $C$DW$75, DW_AT_TI_symbol_name("puxStackBuffer")
    1701                            .dwattr $C$DW$75, DW_AT_data_member_location[DW_OP_plus_uconst 0x14]
    1702                            .dwattr $C$DW$75, DW_AT_accessibility(DW_ACCESS_public)
    1703                            .dwattr $C$DW$75, DW_AT_decl_file("H:/EECS_388/TI_ARM_Projects/FreeRTOS823_LM3S1968_ASM/Source
    1704                            .dwattr $C$DW$75, DW_AT_decl_line(0xa0)
    1705                            .dwattr $C$DW$75, DW_AT_decl_column(0x0f)
TI ARM Assembler PC v15.12.1 Wed Nov 30 14:37:43 2016

Tools Copyright (c) 1996-2015 Texas Instruments Incorporated
port.asm                                                             PAGE   32

    1706                    
    1707                    $C$DW$76        .dwtag  DW_TAG_member
    1708                            .dwattr $C$DW$76, DW_AT_type(*$C$DW$T$46)
    1709                            .dwattr $C$DW$76, DW_AT_name("xRegions")
    1710                            .dwattr $C$DW$76, DW_AT_TI_symbol_name("xRegions")
    1711                            .dwattr $C$DW$76, DW_AT_data_member_location[DW_OP_plus_uconst 0x18]
    1712                            .dwattr $C$DW$76, DW_AT_accessibility(DW_ACCESS_public)
    1713                            .dwattr $C$DW$76, DW_AT_decl_file("H:/EECS_388/TI_ARM_Projects/FreeRTOS823_LM3S1968_ASM/Source
    1714                            .dwattr $C$DW$76, DW_AT_decl_line(0xa1)
    1715                            .dwattr $C$DW$76, DW_AT_decl_column(0x11)
    1716                    
    1717                            .dwattr $C$DW$T$47, DW_AT_decl_file("H:/EECS_388/TI_ARM_Projects/FreeRTOS823_LM3S1968_ASM/Sour
    1718                            .dwattr $C$DW$T$47, DW_AT_decl_line(0x99)
    1719                            .dwattr $C$DW$T$47, DW_AT_decl_column(0x10)
    1720                            .dwendtag $C$DW$T$47
    1721                    
    1722                    $C$DW$T$111     .dwtag  DW_TAG_typedef
    1723                            .dwattr $C$DW$T$111, DW_AT_name("TaskParameters_t")
    1724                            .dwattr $C$DW$T$111, DW_AT_type(*$C$DW$T$47)
    1725                            .dwattr $C$DW$T$111, DW_AT_language(DW_LANG_C)
    1726                            .dwattr $C$DW$T$111, DW_AT_decl_file("H:/EECS_388/TI_ARM_Projects/FreeRTOS823_LM3S1968_ASM/Sou
    1727                            .dwattr $C$DW$T$111, DW_AT_decl_line(0xa2)
    1728                            .dwattr $C$DW$T$111, DW_AT_decl_column(0x03)
    1729                    
    1730                    
    1731                    $C$DW$T$51      .dwtag  DW_TAG_structure_type
    1732                            .dwattr $C$DW$T$51, DW_AT_name("xTASK_STATUS")
    1733                            .dwattr $C$DW$T$51, DW_AT_byte_size(0x20)
    1734                    $C$DW$77        .dwtag  DW_TAG_member
    1735                            .dwattr $C$DW$77, DW_AT_type(*$C$DW$T$48)
    1736                            .dwattr $C$DW$77, DW_AT_name("xHandle")
    1737                            .dwattr $C$DW$77, DW_AT_TI_symbol_name("xHandle")
    1738                            .dwattr $C$DW$77, DW_AT_data_member_location[DW_OP_plus_uconst 0x0]
    1739                            .dwattr $C$DW$77, DW_AT_accessibility(DW_ACCESS_public)
    1740                            .dwattr $C$DW$77, DW_AT_decl_file("H:/EECS_388/TI_ARM_Projects/FreeRTOS823_LM3S1968_ASM/Source
    1741                            .dwattr $C$DW$77, DW_AT_decl_line(0xa8)
    1742                            .dwattr $C$DW$77, DW_AT_decl_column(0x0f)
    1743                    
    1744                    $C$DW$78        .dwtag  DW_TAG_member
    1745                            .dwattr $C$DW$78, DW_AT_type(*$C$DW$T$40)
    1746                            .dwattr $C$DW$78, DW_AT_name("pcTaskName")
    1747                            .dwattr $C$DW$78, DW_AT_TI_symbol_name("pcTaskName")
    1748                            .dwattr $C$DW$78, DW_AT_data_member_location[DW_OP_plus_uconst 0x4]
    1749                            .dwattr $C$DW$78, DW_AT_accessibility(DW_ACCESS_public)
    1750                            .dwattr $C$DW$78, DW_AT_decl_file("H:/EECS_388/TI_ARM_Projects/FreeRTOS823_LM3S1968_ASM/Source
    1751                            .dwattr $C$DW$78, DW_AT_decl_line(0xa9)
    1752                            .dwattr $C$DW$78, DW_AT_decl_column(0x0e)
    1753                    
    1754                    $C$DW$79        .dwtag  DW_TAG_member
    1755                            .dwattr $C$DW$79, DW_AT_type(*$C$DW$T$25)
    1756                            .dwattr $C$DW$79, DW_AT_name("xTaskNumber")
    1757                            .dwattr $C$DW$79, DW_AT_TI_symbol_name("xTaskNumber")
    1758                            .dwattr $C$DW$79, DW_AT_data_member_location[DW_OP_plus_uconst 0x8]
    1759                            .dwattr $C$DW$79, DW_AT_accessibility(DW_ACCESS_public)
    1760                            .dwattr $C$DW$79, DW_AT_decl_file("H:/EECS_388/TI_ARM_Projects/FreeRTOS823_LM3S1968_ASM/Source
TI ARM Assembler PC v15.12.1 Wed Nov 30 14:37:43 2016

Tools Copyright (c) 1996-2015 Texas Instruments Incorporated
port.asm                                                             PAGE   33

    1761                            .dwattr $C$DW$79, DW_AT_decl_line(0xaa)
    1762                            .dwattr $C$DW$79, DW_AT_decl_column(0x0e)
    1763                    
    1764                    $C$DW$80        .dwtag  DW_TAG_member
    1765                            .dwattr $C$DW$80, DW_AT_type(*$C$DW$T$50)
    1766                            .dwattr $C$DW$80, DW_AT_name("eCurrentState")
    1767                            .dwattr $C$DW$80, DW_AT_TI_symbol_name("eCurrentState")
    1768                            .dwattr $C$DW$80, DW_AT_data_member_location[DW_OP_plus_uconst 0xc]
    1769                            .dwattr $C$DW$80, DW_AT_accessibility(DW_ACCESS_public)
    1770                            .dwattr $C$DW$80, DW_AT_decl_file("H:/EECS_388/TI_ARM_Projects/FreeRTOS823_LM3S1968_ASM/Source
    1771                            .dwattr $C$DW$80, DW_AT_decl_line(0xab)
    1772                            .dwattr $C$DW$80, DW_AT_decl_column(0x0d)
    1773                    
    1774                    $C$DW$81        .dwtag  DW_TAG_member
    1775                            .dwattr $C$DW$81, DW_AT_type(*$C$DW$T$25)
    1776                            .dwattr $C$DW$81, DW_AT_name("uxCurrentPriority")
    1777                            .dwattr $C$DW$81, DW_AT_TI_symbol_name("uxCurrentPriority")
    1778                            .dwattr $C$DW$81, DW_AT_data_member_location[DW_OP_plus_uconst 0x10]
    1779                            .dwattr $C$DW$81, DW_AT_accessibility(DW_ACCESS_public)
    1780                            .dwattr $C$DW$81, DW_AT_decl_file("H:/EECS_388/TI_ARM_Projects/FreeRTOS823_LM3S1968_ASM/Source
    1781                            .dwattr $C$DW$81, DW_AT_decl_line(0xac)
    1782                            .dwattr $C$DW$81, DW_AT_decl_column(0x0e)
    1783                    
    1784                    $C$DW$82        .dwtag  DW_TAG_member
    1785                            .dwattr $C$DW$82, DW_AT_type(*$C$DW$T$25)
    1786                            .dwattr $C$DW$82, DW_AT_name("uxBasePriority")
    1787                            .dwattr $C$DW$82, DW_AT_TI_symbol_name("uxBasePriority")
    1788                            .dwattr $C$DW$82, DW_AT_data_member_location[DW_OP_plus_uconst 0x14]
    1789                            .dwattr $C$DW$82, DW_AT_accessibility(DW_ACCESS_public)
    1790                            .dwattr $C$DW$82, DW_AT_decl_file("H:/EECS_388/TI_ARM_Projects/FreeRTOS823_LM3S1968_ASM/Source
    1791                            .dwattr $C$DW$82, DW_AT_decl_line(0xad)
    1792                            .dwattr $C$DW$82, DW_AT_decl_column(0x0e)
    1793                    
    1794                    $C$DW$83        .dwtag  DW_TAG_member
    1795                            .dwattr $C$DW$83, DW_AT_type(*$C$DW$T$24)
    1796                            .dwattr $C$DW$83, DW_AT_name("ulRunTimeCounter")
    1797                            .dwattr $C$DW$83, DW_AT_TI_symbol_name("ulRunTimeCounter")
    1798                            .dwattr $C$DW$83, DW_AT_data_member_location[DW_OP_plus_uconst 0x18]
    1799                            .dwattr $C$DW$83, DW_AT_accessibility(DW_ACCESS_public)
    1800                            .dwattr $C$DW$83, DW_AT_decl_file("H:/EECS_388/TI_ARM_Projects/FreeRTOS823_LM3S1968_ASM/Source
    1801                            .dwattr $C$DW$83, DW_AT_decl_line(0xae)
    1802                            .dwattr $C$DW$83, DW_AT_decl_column(0x0b)
    1803                    
    1804                    $C$DW$84        .dwtag  DW_TAG_member
    1805                            .dwattr $C$DW$84, DW_AT_type(*$C$DW$T$42)
    1806                            .dwattr $C$DW$84, DW_AT_name("usStackHighWaterMark")
    1807                            .dwattr $C$DW$84, DW_AT_TI_symbol_name("usStackHighWaterMark")
    1808                            .dwattr $C$DW$84, DW_AT_data_member_location[DW_OP_plus_uconst 0x1c]
    1809                            .dwattr $C$DW$84, DW_AT_accessibility(DW_ACCESS_public)
    1810                            .dwattr $C$DW$84, DW_AT_decl_file("H:/EECS_388/TI_ARM_Projects/FreeRTOS823_LM3S1968_ASM/Source
    1811                            .dwattr $C$DW$84, DW_AT_decl_line(0xaf)
    1812                            .dwattr $C$DW$84, DW_AT_decl_column(0x0b)
    1813                    
    1814                            .dwattr $C$DW$T$51, DW_AT_decl_file("H:/EECS_388/TI_ARM_Projects/FreeRTOS823_LM3S1968_ASM/Sour
    1815                            .dwattr $C$DW$T$51, DW_AT_decl_line(0xa6)
TI ARM Assembler PC v15.12.1 Wed Nov 30 14:37:43 2016

Tools Copyright (c) 1996-2015 Texas Instruments Incorporated
port.asm                                                             PAGE   34

    1816                            .dwattr $C$DW$T$51, DW_AT_decl_column(0x10)
    1817                            .dwendtag $C$DW$T$51
    1818                    
    1819                    $C$DW$T$112     .dwtag  DW_TAG_typedef
    1820                            .dwattr $C$DW$T$112, DW_AT_name("TaskStatus_t")
    1821                            .dwattr $C$DW$T$112, DW_AT_type(*$C$DW$T$51)
    1822                            .dwattr $C$DW$T$112, DW_AT_language(DW_LANG_C)
    1823                            .dwattr $C$DW$T$112, DW_AT_decl_file("H:/EECS_388/TI_ARM_Projects/FreeRTOS823_LM3S1968_ASM/Sou
    1824                            .dwattr $C$DW$T$112, DW_AT_decl_line(0xb0)
    1825                            .dwattr $C$DW$T$112, DW_AT_decl_column(0x03)
    1826                    
    1827                    
    1828                    $C$DW$T$54      .dwtag  DW_TAG_structure_type
    1829                            .dwattr $C$DW$T$54, DW_AT_name("xTIME_OUT")
    1830                            .dwattr $C$DW$T$54, DW_AT_byte_size(0x08)
    1831                    $C$DW$85        .dwtag  DW_TAG_member
    1832                            .dwattr $C$DW$85, DW_AT_type(*$C$DW$T$53)
    1833                            .dwattr $C$DW$85, DW_AT_name("xOverflowCount")
    1834                            .dwattr $C$DW$85, DW_AT_TI_symbol_name("xOverflowCount")
    1835                            .dwattr $C$DW$85, DW_AT_data_member_location[DW_OP_plus_uconst 0x0]
    1836                            .dwattr $C$DW$85, DW_AT_accessibility(DW_ACCESS_public)
    1837                            .dwattr $C$DW$85, DW_AT_decl_file("H:/EECS_388/TI_ARM_Projects/FreeRTOS823_LM3S1968_ASM/Source
    1838                            .dwattr $C$DW$85, DW_AT_decl_line(0x88)
    1839                            .dwattr $C$DW$85, DW_AT_decl_column(0x0d)
    1840                    
    1841                    $C$DW$86        .dwtag  DW_TAG_member
    1842                            .dwattr $C$DW$86, DW_AT_type(*$C$DW$T$30)
    1843                            .dwattr $C$DW$86, DW_AT_name("xTimeOnEntering")
    1844                            .dwattr $C$DW$86, DW_AT_TI_symbol_name("xTimeOnEntering")
    1845                            .dwattr $C$DW$86, DW_AT_data_member_location[DW_OP_plus_uconst 0x4]
    1846                            .dwattr $C$DW$86, DW_AT_accessibility(DW_ACCESS_public)
    1847                            .dwattr $C$DW$86, DW_AT_decl_file("H:/EECS_388/TI_ARM_Projects/FreeRTOS823_LM3S1968_ASM/Source
    1848                            .dwattr $C$DW$86, DW_AT_decl_line(0x89)
    1849                            .dwattr $C$DW$86, DW_AT_decl_column(0x0d)
    1850                    
    1851                            .dwattr $C$DW$T$54, DW_AT_decl_file("H:/EECS_388/TI_ARM_Projects/FreeRTOS823_LM3S1968_ASM/Sour
    1852                            .dwattr $C$DW$T$54, DW_AT_decl_line(0x86)
    1853                            .dwattr $C$DW$T$54, DW_AT_decl_column(0x10)
    1854                            .dwendtag $C$DW$T$54
    1855                    
    1856                    $C$DW$T$113     .dwtag  DW_TAG_typedef
    1857                            .dwattr $C$DW$T$113, DW_AT_name("TimeOut_t")
    1858                            .dwattr $C$DW$T$113, DW_AT_type(*$C$DW$T$54)
    1859                            .dwattr $C$DW$T$113, DW_AT_language(DW_LANG_C)
    1860                            .dwattr $C$DW$T$113, DW_AT_decl_file("H:/EECS_388/TI_ARM_Projects/FreeRTOS823_LM3S1968_ASM/Sou
    1861                            .dwattr $C$DW$T$113, DW_AT_decl_line(0x8a)
    1862                            .dwattr $C$DW$T$113, DW_AT_decl_column(0x03)
    1863                    
    1864                            .dwattr $C$DW$CU, DW_AT_language(DW_LANG_C)
    1865                    
    1866                    ;***************************************************************
    1867                    ;* DWARF CIE ENTRIES                                           *
    1868                    ;***************************************************************
    1869                    
    1870                    $C$DW$CIE       .dwcie 14
TI ARM Assembler PC v15.12.1 Wed Nov 30 14:37:43 2016

Tools Copyright (c) 1996-2015 Texas Instruments Incorporated
port.asm                                                             PAGE   35

    1871                            .dwcfi  cfa_register, 13
    1872                            .dwcfi  cfa_offset, 0
    1873                            .dwcfi  undefined, 0
    1874                            .dwcfi  undefined, 1
    1875                            .dwcfi  undefined, 2
    1876                            .dwcfi  undefined, 3
    1877                            .dwcfi  same_value, 4
    1878                            .dwcfi  same_value, 5
    1879                            .dwcfi  same_value, 6
    1880                            .dwcfi  same_value, 7
    1881                            .dwcfi  same_value, 8
    1882                            .dwcfi  same_value, 9
    1883                            .dwcfi  same_value, 10
    1884                            .dwcfi  same_value, 11
    1885                            .dwcfi  undefined, 12
    1886                            .dwcfi  undefined, 13
    1887                            .dwcfi  undefined, 14
    1888                            .dwcfi  undefined, 14
    1889                            .dwcfi  undefined, 7
    1890                            .dwendentry
    1891                            .dwendtag $C$DW$CU
    1892                    

--------------------------
Thumb2 Statistics
--------------------------
Number of Thumb2 ins converted to Thumb = 0 (0%)
Number of Thumb ins in input = 85 (85%)
Number of Thumb2 ins encoded as Thumb2 = 14 (100%)
Number of Thumb2 ins converted to 2 OPND Thumb = 3


No Assembly Errors, No Assembly Warnings
