TI ARM Assembler PC v15.12.1 Tue Sep 13 14:05:54 2016

Tools Copyright (c) 1996-2015 Texas Instruments Incorporated
uartstdio.asm                                                        PAGE    1

       1                    ;******************************************************************************
       2                    ;* TI ARM C/C++ Codegen                                       PC v15.12.1.LTS *
       3                    ;* Date/Time created: Tue Sep 13 14:05:53 2016                                *
       4                    ;******************************************************************************
       5                            .compiler_opts --abi=eabi --arm_vmrs_si_workaround=off --code_state=16 --diag_wrap=off --disab
       6 00000000                   .thumb
       7                    
       8                    $C$DW$CU        .dwtag  DW_TAG_compile_unit
       9                            .dwattr $C$DW$CU, DW_AT_name("../Drivers/uartstdio.c")
      10                            .dwattr $C$DW$CU, DW_AT_producer("TI TI ARM C/C++ Codegen PC v15.12.1.LTS Copyright (c) 1996-2
      11                            .dwattr $C$DW$CU, DW_AT_TI_version(0x01)
      12                            .dwattr $C$DW$CU, DW_AT_comp_dir("H:\EECS_388\TI_ARM_Projects\Program_Blinky\Debug")
      13                    
      14                    $C$DW$1 .dwtag  DW_TAG_subprogram
      15                            .dwattr $C$DW$1, DW_AT_name("SysCtlPeripheralPresent")
      16                            .dwattr $C$DW$1, DW_AT_TI_symbol_name("SysCtlPeripheralPresent")
      17                            .dwattr $C$DW$1, DW_AT_type(*$C$DW$T$33)
      18                            .dwattr $C$DW$1, DW_AT_declaration
      19                            .dwattr $C$DW$1, DW_AT_external
      20                            .dwattr $C$DW$1, DW_AT_decl_file("C:/TI_CodeComposer/StellarisWare-LM3S1968/driverlib/sysctl.h
      21                            .dwattr $C$DW$1, DW_AT_decl_line(0x248)
      22                            .dwattr $C$DW$1, DW_AT_decl_column(0x11)
      23                    $C$DW$2 .dwtag  DW_TAG_formal_parameter
      24                            .dwattr $C$DW$2, DW_AT_type(*$C$DW$T$13)
      25                    
      26                            .dwendtag $C$DW$1
      27                    
      28                    
      29                    $C$DW$3 .dwtag  DW_TAG_subprogram
      30                            .dwattr $C$DW$3, DW_AT_name("SysCtlPeripheralEnable")
      31                            .dwattr $C$DW$3, DW_AT_TI_symbol_name("SysCtlPeripheralEnable")
      32                            .dwattr $C$DW$3, DW_AT_declaration
      33                            .dwattr $C$DW$3, DW_AT_external
      34                            .dwattr $C$DW$3, DW_AT_decl_file("C:/TI_CodeComposer/StellarisWare-LM3S1968/driverlib/sysctl.h
      35                            .dwattr $C$DW$3, DW_AT_decl_line(0x24d)
      36                            .dwattr $C$DW$3, DW_AT_decl_column(0x0d)
      37                    $C$DW$4 .dwtag  DW_TAG_formal_parameter
      38                            .dwattr $C$DW$4, DW_AT_type(*$C$DW$T$13)
      39                    
      40                            .dwendtag $C$DW$3
      41                    
      42                    
      43                    $C$DW$5 .dwtag  DW_TAG_subprogram
      44                            .dwattr $C$DW$5, DW_AT_name("SysCtlClockGet")
      45                            .dwattr $C$DW$5, DW_AT_TI_symbol_name("SysCtlClockGet")
      46                            .dwattr $C$DW$5, DW_AT_type(*$C$DW$T$13)
      47                            .dwattr $C$DW$5, DW_AT_declaration
      48                            .dwattr $C$DW$5, DW_AT_external
      49                            .dwattr $C$DW$5, DW_AT_decl_file("C:/TI_CodeComposer/StellarisWare-LM3S1968/driverlib/sysctl.h
      50                            .dwattr $C$DW$5, DW_AT_decl_line(0x268)
      51                            .dwattr $C$DW$5, DW_AT_decl_column(0x16)
      52                            .dwendtag $C$DW$5
      53                    
      54                    
      55                    $C$DW$6 .dwtag  DW_TAG_subprogram
TI ARM Assembler PC v15.12.1 Tue Sep 13 14:05:54 2016

Tools Copyright (c) 1996-2015 Texas Instruments Incorporated
uartstdio.asm                                                        PAGE    2

      56                            .dwattr $C$DW$6, DW_AT_name("UARTConfigSetExpClk")
      57                            .dwattr $C$DW$6, DW_AT_TI_symbol_name("UARTConfigSetExpClk")
      58                            .dwattr $C$DW$6, DW_AT_declaration
      59                            .dwattr $C$DW$6, DW_AT_external
      60                            .dwattr $C$DW$6, DW_AT_decl_file("C:/TI_CodeComposer/StellarisWare-LM3S1968/driverlib/uart.h")
      61                            .dwattr $C$DW$6, DW_AT_decl_line(0xc6)
      62                            .dwattr $C$DW$6, DW_AT_decl_column(0x0d)
      63                    $C$DW$7 .dwtag  DW_TAG_formal_parameter
      64                            .dwattr $C$DW$7, DW_AT_type(*$C$DW$T$13)
      65                    
      66                    $C$DW$8 .dwtag  DW_TAG_formal_parameter
      67                            .dwattr $C$DW$8, DW_AT_type(*$C$DW$T$13)
      68                    
      69                    $C$DW$9 .dwtag  DW_TAG_formal_parameter
      70                            .dwattr $C$DW$9, DW_AT_type(*$C$DW$T$13)
      71                    
      72                    $C$DW$10        .dwtag  DW_TAG_formal_parameter
      73                            .dwattr $C$DW$10, DW_AT_type(*$C$DW$T$13)
      74                    
      75                            .dwendtag $C$DW$6
      76                    
      77                    
      78                    $C$DW$11        .dwtag  DW_TAG_subprogram
      79                            .dwattr $C$DW$11, DW_AT_name("UARTEnable")
      80                            .dwattr $C$DW$11, DW_AT_TI_symbol_name("UARTEnable")
      81                            .dwattr $C$DW$11, DW_AT_declaration
      82                            .dwattr $C$DW$11, DW_AT_external
      83                            .dwattr $C$DW$11, DW_AT_decl_file("C:/TI_CodeComposer/StellarisWare-LM3S1968/driverlib/uart.h"
      84                            .dwattr $C$DW$11, DW_AT_decl_line(0xcb)
      85                            .dwattr $C$DW$11, DW_AT_decl_column(0x0d)
      86                    $C$DW$12        .dwtag  DW_TAG_formal_parameter
      87                            .dwattr $C$DW$12, DW_AT_type(*$C$DW$T$13)
      88                    
      89                            .dwendtag $C$DW$11
      90                    
      91                    
      92                    $C$DW$13        .dwtag  DW_TAG_subprogram
      93                            .dwattr $C$DW$13, DW_AT_name("UARTCharGet")
      94                            .dwattr $C$DW$13, DW_AT_TI_symbol_name("UARTCharGet")
      95                            .dwattr $C$DW$13, DW_AT_type(*$C$DW$T$12)
      96                            .dwattr $C$DW$13, DW_AT_declaration
      97                            .dwattr $C$DW$13, DW_AT_external
      98                            .dwattr $C$DW$13, DW_AT_decl_file("C:/TI_CodeComposer/StellarisWare-LM3S1968/driverlib/uart.h"
      99                            .dwattr $C$DW$13, DW_AT_decl_line(0xd4)
     100                            .dwattr $C$DW$13, DW_AT_decl_column(0x0d)
     101                    $C$DW$14        .dwtag  DW_TAG_formal_parameter
     102                            .dwattr $C$DW$14, DW_AT_type(*$C$DW$T$13)
     103                    
     104                            .dwendtag $C$DW$13
     105                    
     106                    
     107                    $C$DW$15        .dwtag  DW_TAG_subprogram
     108                            .dwattr $C$DW$15, DW_AT_name("UARTCharPut")
     109                            .dwattr $C$DW$15, DW_AT_TI_symbol_name("UARTCharPut")
     110                            .dwattr $C$DW$15, DW_AT_declaration
TI ARM Assembler PC v15.12.1 Tue Sep 13 14:05:54 2016

Tools Copyright (c) 1996-2015 Texas Instruments Incorporated
uartstdio.asm                                                        PAGE    3

     111                            .dwattr $C$DW$15, DW_AT_external
     112                            .dwattr $C$DW$15, DW_AT_decl_file("C:/TI_CodeComposer/StellarisWare-LM3S1968/driverlib/uart.h"
     113                            .dwattr $C$DW$15, DW_AT_decl_line(0xd7)
     114                            .dwattr $C$DW$15, DW_AT_decl_column(0x0d)
     115                    $C$DW$16        .dwtag  DW_TAG_formal_parameter
     116                            .dwattr $C$DW$16, DW_AT_type(*$C$DW$T$13)
     117                    
     118                    $C$DW$17        .dwtag  DW_TAG_formal_parameter
     119                            .dwattr $C$DW$17, DW_AT_type(*$C$DW$T$6)
     120                    
     121                            .dwendtag $C$DW$15
     122                    
     123 00000000                   .data
     124                            .align  4
     125                            .elfsym g_ulBase,SYM_SIZE(4)
     126 00000000           g_ulBase:
     127 00000000 00000000          .bits   0,32                    ; g_ulBase @ 0
     128                    
     129                    $C$DW$18        .dwtag  DW_TAG_variable
     130                            .dwattr $C$DW$18, DW_AT_name("g_ulBase")
     131                            .dwattr $C$DW$18, DW_AT_TI_symbol_name("g_ulBase")
     132                            .dwattr $C$DW$18, DW_AT_type(*$C$DW$T$13)
     133                            .dwattr $C$DW$18, DW_AT_location[DW_OP_addr g_ulBase]
     134                            .dwattr $C$DW$18, DW_AT_decl_file("../Drivers/uartstdio.c")
     135                            .dwattr $C$DW$18, DW_AT_decl_line(0x7c)
     136                            .dwattr $C$DW$18, DW_AT_decl_column(0x16)
     137                    
     138 00000000                   .sect   ".const"
     139                            .align  4
     140                            .elfsym g_pcHex,SYM_SIZE(4)
     141 00000000           g_pcHex:
     142 00000000 00000000!         .bits   $C$SL1,32               ; g_pcHex @ 0
     143                    
     144                    $C$DW$19        .dwtag  DW_TAG_variable
     145                            .dwattr $C$DW$19, DW_AT_name("g_pcHex")
     146                            .dwattr $C$DW$19, DW_AT_TI_symbol_name("g_pcHex")
     147                            .dwattr $C$DW$19, DW_AT_type(*$C$DW$T$48)
     148                            .dwattr $C$DW$19, DW_AT_location[DW_OP_addr g_pcHex]
     149                            .dwattr $C$DW$19, DW_AT_decl_file("../Drivers/uartstdio.c")
     150                            .dwattr $C$DW$19, DW_AT_decl_line(0x84)
     151                            .dwattr $C$DW$19, DW_AT_decl_column(0x1b)
     152                    
     153 00000000                   .sect   ".const:g_ulUARTBase"
     154                            .clink
     155                            .align  4
     156                            .elfsym g_ulUARTBase,SYM_SIZE(12)
     157 00000000           g_ulUARTBase:
     158 00000000 4000C000          .bits   1073790976,32                   ; g_ulUARTBase[0] @ 0
     159 00000004 4000D000          .bits   1073795072,32                   ; g_ulUARTBase[1] @ 32
     160 00000008 4000E000          .bits   1073799168,32                   ; g_ulUARTBase[2] @ 64
     161                    
     162                    $C$DW$20        .dwtag  DW_TAG_variable
     163                            .dwattr $C$DW$20, DW_AT_name("g_ulUARTBase")
     164                            .dwattr $C$DW$20, DW_AT_TI_symbol_name("g_ulUARTBase")
     165                            .dwattr $C$DW$20, DW_AT_type(*$C$DW$T$45)
TI ARM Assembler PC v15.12.1 Tue Sep 13 14:05:54 2016

Tools Copyright (c) 1996-2015 Texas Instruments Incorporated
uartstdio.asm                                                        PAGE    4

     166                            .dwattr $C$DW$20, DW_AT_location[DW_OP_addr g_ulUARTBase]
     167                            .dwattr $C$DW$20, DW_AT_decl_file("../Drivers/uartstdio.c")
     168                            .dwattr $C$DW$20, DW_AT_decl_line(0x8b)
     169                            .dwattr $C$DW$20, DW_AT_decl_column(0x1c)
     170                    
     171 00000000                   .sect   ".const:g_ulUARTPeriph"
     172                            .clink
     173                            .align  4
     174                            .elfsym g_ulUARTPeriph,SYM_SIZE(12)
     175 00000000           g_ulUARTPeriph:
     176 00000000 10000001          .bits   268435457,32                    ; g_ulUARTPeriph[0] @ 0
     177 00000004 10000002          .bits   268435458,32                    ; g_ulUARTPeriph[1] @ 32
     178 00000008 10000004          .bits   268435460,32                    ; g_ulUARTPeriph[2] @ 64
     179                    
     180                    $C$DW$21        .dwtag  DW_TAG_variable
     181                            .dwattr $C$DW$21, DW_AT_name("g_ulUARTPeriph")
     182                            .dwattr $C$DW$21, DW_AT_TI_symbol_name("g_ulUARTPeriph")
     183                            .dwattr $C$DW$21, DW_AT_type(*$C$DW$T$45)
     184                            .dwattr $C$DW$21, DW_AT_location[DW_OP_addr g_ulUARTPeriph]
     185                            .dwattr $C$DW$21, DW_AT_decl_file("../Drivers/uartstdio.c")
     186                            .dwattr $C$DW$21, DW_AT_decl_line(0xa8)
     187                            .dwattr $C$DW$21, DW_AT_decl_column(0x1c)
     188                    
     189 00000004                   .data
     190                            .align  1
     191                            .elfsym bLastWasCR$1,SYM_SIZE(1)
     192 00000004           bLastWasCR$1:
     193 00000004 00000000          .bits   0,8                     ; bLastWasCR$1 @ 0
     194                    
     195                    ;       C:\TI_CodeComposer\ccsv6\tools\compiler\ti-cgt-arm_15.12.1.LTS\bin\armacpia.exe -@C:\\Users\\a
     196 00000000                   .sect   ".text"
     197                            .clink
     198                            .thumbfunc UARTStdioInit
     199 00000000                   .thumb
     200                            .global UARTStdioInit
     201                    
     202                    $C$DW$22        .dwtag  DW_TAG_subprogram
     203                            .dwattr $C$DW$22, DW_AT_name("UARTStdioInit")
     204                            .dwattr $C$DW$22, DW_AT_low_pc(UARTStdioInit)
     205                            .dwattr $C$DW$22, DW_AT_high_pc(0x00)
     206                            .dwattr $C$DW$22, DW_AT_TI_symbol_name("UARTStdioInit")
     207                            .dwattr $C$DW$22, DW_AT_external
     208                            .dwattr $C$DW$22, DW_AT_TI_begin_file("../Drivers/uartstdio.c")
     209                            .dwattr $C$DW$22, DW_AT_TI_begin_line(0x14c)
     210                            .dwattr $C$DW$22, DW_AT_TI_begin_column(0x01)
     211                            .dwattr $C$DW$22, DW_AT_decl_file("../Drivers/uartstdio.c")
     212                            .dwattr $C$DW$22, DW_AT_decl_line(0x14c)
     213                            .dwattr $C$DW$22, DW_AT_decl_column(0x01)
     214                            .dwattr $C$DW$22, DW_AT_TI_max_frame_size(0x08)
     215                            .dwpsn  file "../Drivers/uartstdio.c",line 333,column 1,is_stmt,address UARTStdioInit,isa 1
     216                    
     217                            .dwfde $C$DW$CIE, UARTStdioInit
     218                    $C$DW$23        .dwtag  DW_TAG_formal_parameter
     219                            .dwattr $C$DW$23, DW_AT_name("ulPortNum")
     220                            .dwattr $C$DW$23, DW_AT_TI_symbol_name("ulPortNum")
TI ARM Assembler PC v15.12.1 Tue Sep 13 14:05:54 2016

Tools Copyright (c) 1996-2015 Texas Instruments Incorporated
uartstdio.asm                                                        PAGE    5

     221                            .dwattr $C$DW$23, DW_AT_type(*$C$DW$T$13)
     222                            .dwattr $C$DW$23, DW_AT_location[DW_OP_reg0]
     223                    
     224                    
     225                    ;*****************************************************************************
     226                    ;* FUNCTION NAME: UARTStdioInit                                              *
     227                    ;*                                                                           *
     228                    ;*   Regs Modified     : A1,A2,A3,A4,V9,SP,LR,SR                             *
     229                    ;*   Regs Used         : A1,A2,A3,A4,V9,SP,LR,SR                             *
     230                    ;*   Local Frame Size  : 0 Args + 4 Auto + 4 Save = 8 byte                   *
     231                    ;*****************************************************************************
     232 00000000           UARTStdioInit:
     233                    ;* --------------------------------------------------------------------------*
     234                            .dwcfi  cfa_offset, 0
     235 00000000 B508              PUSH      {A4, LR}              ; [DPU_3_PIPE]  ; [ORIG 16-BIT INS]
     236                            .dwcfi  cfa_offset, 8
     237                            .dwcfi  save_reg_to_mem, 14, -4
     238                            .dwcfi  save_reg_to_mem, 3, -8
     239                    $C$DW$24        .dwtag  DW_TAG_variable
     240                            .dwattr $C$DW$24, DW_AT_name("ulPortNum")
     241                            .dwattr $C$DW$24, DW_AT_TI_symbol_name("ulPortNum")
     242                            .dwattr $C$DW$24, DW_AT_type(*$C$DW$T$13)
     243                            .dwattr $C$DW$24, DW_AT_location[DW_OP_breg13 0]
     244                    
     245 00000002 9000              STR       A1, [SP, #0]          ; [DPU_3_PIPE] |333|  ; [ORIG 16-BIT INS]
     246                            .dwpsn  file "../Drivers/uartstdio.c",line 338,column 5,is_stmt,isa 1
     247 00000004 9800              LDR       A1, [SP, #0]          ; [DPU_3_PIPE] |338|  ; [ORIG 16-BIT INS]
     248 00000006 31E1F44F          MOV       A2, #115200           ; [DPU_3_PIPE] |338|  ; [KEEP 32-BIT INS]
     249                    $C$DW$25        .dwtag  DW_TAG_TI_branch
     250                            .dwattr $C$DW$25, DW_AT_low_pc(0x00)
     251                            .dwattr $C$DW$25, DW_AT_name("UARTStdioInitExpClk")
     252                            .dwattr $C$DW$25, DW_AT_TI_call
     253                    
     254 0000000a F801F000          BL        UARTStdioInitExpClk   ; [DPU_3_PIPE] |338|  ; [KEEP 32-BIT INS]
     255                            ; CALL OCCURS {UARTStdioInitExpClk }  ; [] |338| 
     256                            .dwpsn  file "../Drivers/uartstdio.c",line 339,column 1,is_stmt,isa 1
     257                    $C$DW$26        .dwtag  DW_TAG_TI_branch
     258                            .dwattr $C$DW$26, DW_AT_low_pc(0x00)
     259                            .dwattr $C$DW$26, DW_AT_TI_return
     260                    
     261 0000000e BD08              POP       {A4, PC}              ; [DPU_3_PIPE]  ; [ORIG 16-BIT INS]
     262                            .dwcfi  cfa_offset, 0
     263                            ; BRANCH OCCURS                  ; [] 
     264                            .dwattr $C$DW$22, DW_AT_TI_end_file("../Drivers/uartstdio.c")
     265                            .dwattr $C$DW$22, DW_AT_TI_end_line(0x153)
     266                            .dwattr $C$DW$22, DW_AT_TI_end_column(0x01)
     267                            .dwendentry
     268                            .dwendtag $C$DW$22
     269                    
     270 00000010                   .sect   ".text"
     271                            .clink
     272                            .thumbfunc UARTStdioInitExpClk
     273 00000010                   .thumb
     274                            .global UARTStdioInitExpClk
     275                    
TI ARM Assembler PC v15.12.1 Tue Sep 13 14:05:54 2016

Tools Copyright (c) 1996-2015 Texas Instruments Incorporated
uartstdio.asm                                                        PAGE    6

     276                    $C$DW$27        .dwtag  DW_TAG_subprogram
     277                            .dwattr $C$DW$27, DW_AT_name("UARTStdioInitExpClk")
     278                            .dwattr $C$DW$27, DW_AT_low_pc(UARTStdioInitExpClk)
     279                            .dwattr $C$DW$27, DW_AT_high_pc(0x00)
     280                            .dwattr $C$DW$27, DW_AT_TI_symbol_name("UARTStdioInitExpClk")
     281                            .dwattr $C$DW$27, DW_AT_external
     282                            .dwattr $C$DW$27, DW_AT_TI_begin_file("../Drivers/uartstdio.c")
     283                            .dwattr $C$DW$27, DW_AT_TI_begin_line(0x16f)
     284                            .dwattr $C$DW$27, DW_AT_TI_begin_column(0x01)
     285                            .dwattr $C$DW$27, DW_AT_decl_file("../Drivers/uartstdio.c")
     286                            .dwattr $C$DW$27, DW_AT_decl_line(0x16f)
     287                            .dwattr $C$DW$27, DW_AT_decl_column(0x01)
     288                            .dwattr $C$DW$27, DW_AT_TI_max_frame_size(0x10)
     289                            .dwpsn  file "../Drivers/uartstdio.c",line 368,column 1,is_stmt,address UARTStdioInitExpClk,is
     290                    
     291                            .dwfde $C$DW$CIE, UARTStdioInitExpClk
     292                    $C$DW$28        .dwtag  DW_TAG_formal_parameter
     293                            .dwattr $C$DW$28, DW_AT_name("ulPortNum")
     294                            .dwattr $C$DW$28, DW_AT_TI_symbol_name("ulPortNum")
     295                            .dwattr $C$DW$28, DW_AT_type(*$C$DW$T$13)
     296                            .dwattr $C$DW$28, DW_AT_location[DW_OP_reg0]
     297                    
     298                    $C$DW$29        .dwtag  DW_TAG_formal_parameter
     299                            .dwattr $C$DW$29, DW_AT_name("ulBaud")
     300                            .dwattr $C$DW$29, DW_AT_TI_symbol_name("ulBaud")
     301                            .dwattr $C$DW$29, DW_AT_type(*$C$DW$T$13)
     302                            .dwattr $C$DW$29, DW_AT_location[DW_OP_reg1]
     303                    
     304                    
     305                    ;*****************************************************************************
     306                    ;* FUNCTION NAME: UARTStdioInitExpClk                                        *
     307                    ;*                                                                           *
     308                    ;*   Regs Modified     : A1,A2,A3,A4,V9,SP,LR,SR                             *
     309                    ;*   Regs Used         : A1,A2,A3,A4,V9,SP,LR,SR                             *
     310                    ;*   Local Frame Size  : 0 Args + 8 Auto + 4 Save = 12 byte                  *
     311                    ;*****************************************************************************
     312 00000010           UARTStdioInitExpClk:
     313                    ;* --------------------------------------------------------------------------*
     314                            .dwcfi  cfa_offset, 0
     315 00000010 B50E              PUSH      {A2, A3, A4, LR}      ; [DPU_3_PIPE]  ; [ORIG 16-BIT INS]
     316                            .dwcfi  cfa_offset, 16
     317                            .dwcfi  save_reg_to_mem, 14, -4
     318                            .dwcfi  save_reg_to_mem, 3, -8
     319                            .dwcfi  save_reg_to_mem, 2, -12
     320                            .dwcfi  save_reg_to_mem, 1, -16
     321                    $C$DW$30        .dwtag  DW_TAG_variable
     322                            .dwattr $C$DW$30, DW_AT_name("ulPortNum")
     323                            .dwattr $C$DW$30, DW_AT_TI_symbol_name("ulPortNum")
     324                            .dwattr $C$DW$30, DW_AT_type(*$C$DW$T$13)
     325                            .dwattr $C$DW$30, DW_AT_location[DW_OP_breg13 0]
     326                    
     327                    $C$DW$31        .dwtag  DW_TAG_variable
     328                            .dwattr $C$DW$31, DW_AT_name("ulBaud")
     329                            .dwattr $C$DW$31, DW_AT_TI_symbol_name("ulBaud")
     330                            .dwattr $C$DW$31, DW_AT_type(*$C$DW$T$13)
TI ARM Assembler PC v15.12.1 Tue Sep 13 14:05:54 2016

Tools Copyright (c) 1996-2015 Texas Instruments Incorporated
uartstdio.asm                                                        PAGE    7

     331                            .dwattr $C$DW$31, DW_AT_location[DW_OP_breg13 4]
     332                    
     333 00000012 9101              STR       A2, [SP, #4]          ; [DPU_3_PIPE] |368|  ; [ORIG 16-BIT INS]
     334 00000014 9000              STR       A1, [SP, #0]          ; [DPU_3_PIPE] |368|  ; [ORIG 16-BIT INS]
     335                            .dwpsn  file "../Drivers/uartstdio.c",line 385,column 5,is_stmt,isa 1
     336 00000016 4955              LDR       A2, $C$CON1           ; [DPU_3_PIPE] |385|  ; [ORIG 16-BIT INS]
     337 00000018 9800              LDR       A1, [SP, #0]          ; [DPU_3_PIPE] |385|  ; [ORIG 16-BIT INS]
     338 0000001a 0020F851          LDR       A1, [A2, +A1, LSL #2] ; [DPU_3_PIPE] |385|  ; [KEEP 32-BIT INS]
     339                    $C$DW$32        .dwtag  DW_TAG_TI_branch
     340                            .dwattr $C$DW$32, DW_AT_low_pc(0x00)
     341                            .dwattr $C$DW$32, DW_AT_name("SysCtlPeripheralPresent")
     342                            .dwattr $C$DW$32, DW_AT_TI_call
     343                    
     344 0000001e FFFEF7FF!         BL        SysCtlPeripheralPresent ; [DPU_3_PIPE] |385|  ; [KEEP 32-BIT INS]
     345                            ; CALL OCCURS {SysCtlPeripheralPresent }  ; [] |385| 
     346 00000022 B1C0              CBZ       A1, ||$C$L1||         ; []  ; [ORIG 16-BIT INS]
     347                            ; BRANCHCC OCCURS {||$C$L1||}    ; [] |385| 
     348                    ;* --------------------------------------------------------------------------*
     349                            .dwpsn  file "../Drivers/uartstdio.c",line 387,column 9,is_stmt,isa 1
     350                            .dwpsn  file "../Drivers/uartstdio.c",line 393,column 5,is_stmt,isa 1
     351 00000024 9800              LDR       A1, [SP, #0]          ; [DPU_3_PIPE] |393|  ; [ORIG 16-BIT INS]
     352 00000026 4A53              LDR       A3, $C$CON3           ; [DPU_3_PIPE] |393|  ; [ORIG 16-BIT INS]
     353 00000028 4951              LDR       A2, $C$CON2           ; [DPU_3_PIPE] |393|  ; [ORIG 16-BIT INS]
     354 0000002a 0020F852          LDR       A1, [A3, +A1, LSL #2] ; [DPU_3_PIPE] |393|  ; [KEEP 32-BIT INS]
     355 0000002e 6008              STR       A1, [A2, #0]          ; [DPU_3_PIPE] |393|  ; [ORIG 16-BIT INS]
     356                            .dwpsn  file "../Drivers/uartstdio.c",line 398,column 5,is_stmt,isa 1
     357 00000030 9800              LDR       A1, [SP, #0]          ; [DPU_3_PIPE] |398|  ; [ORIG 16-BIT INS]
     358 00000032 494E              LDR       A2, $C$CON1           ; [DPU_3_PIPE] |398|  ; [ORIG 16-BIT INS]
     359 00000034 0020F851          LDR       A1, [A2, +A1, LSL #2] ; [DPU_3_PIPE] |398|  ; [KEEP 32-BIT INS]
     360                    $C$DW$33        .dwtag  DW_TAG_TI_branch
     361                            .dwattr $C$DW$33, DW_AT_low_pc(0x00)
     362                            .dwattr $C$DW$33, DW_AT_name("SysCtlPeripheralEnable")
     363                            .dwattr $C$DW$33, DW_AT_TI_call
     364                    
     365 00000038 FFFEF7FF!         BL        SysCtlPeripheralEnable ; [DPU_3_PIPE] |398|  ; [KEEP 32-BIT INS]
     366                            ; CALL OCCURS {SysCtlPeripheralEnable }  ; [] |398| 
     367                            .dwpsn  file "../Drivers/uartstdio.c",line 403,column 5,is_stmt,isa 1
     368                    $C$DW$34        .dwtag  DW_TAG_TI_branch
     369                            .dwattr $C$DW$34, DW_AT_low_pc(0x00)
     370                            .dwattr $C$DW$34, DW_AT_name("SysCtlClockGet")
     371                            .dwattr $C$DW$34, DW_AT_TI_call
     372                    
     373 0000003c FFFEF7FF!         BL        SysCtlClockGet        ; [DPU_3_PIPE] |403|  ; [KEEP 32-BIT INS]
     374                            ; CALL OCCURS {SysCtlClockGet }  ; [] |403| 
     375 00000040 4601              MOV       A2, A1                ; [DPU_3_PIPE] |403|  ; [ORIG 16-BIT INS]
     376 00000042 484B              LDR       A1, $C$CON2           ; [DPU_3_PIPE] |403|  ; [ORIG 16-BIT INS]
     377 00000044 9A01              LDR       A3, [SP, #4]          ; [DPU_3_PIPE] |403|  ; [ORIG 16-BIT INS]
     378 00000046 6800              LDR       A1, [A1, #0]          ; [DPU_3_PIPE] |403|  ; [ORIG 16-BIT INS]
     379 00000048 2360              MOVS      A4, #96               ; [DPU_3_PIPE] |403|  ; [ORIG 16-BIT INS]
     380                    $C$DW$35        .dwtag  DW_TAG_TI_branch
     381                            .dwattr $C$DW$35, DW_AT_low_pc(0x00)
     382                            .dwattr $C$DW$35, DW_AT_name("UARTConfigSetExpClk")
     383                            .dwattr $C$DW$35, DW_AT_TI_call
     384                    
     385 0000004a FFFEF7FF!         BL        UARTConfigSetExpClk   ; [DPU_3_PIPE] |403|  ; [KEEP 32-BIT INS]
TI ARM Assembler PC v15.12.1 Tue Sep 13 14:05:54 2016

Tools Copyright (c) 1996-2015 Texas Instruments Incorporated
uartstdio.asm                                                        PAGE    8

     386                            ; CALL OCCURS {UARTConfigSetExpClk }  ; [] |403| 
     387                            .dwpsn  file "../Drivers/uartstdio.c",line 439,column 5,is_stmt,isa 1
     388 0000004e 4848              LDR       A1, $C$CON2           ; [DPU_3_PIPE] |439|  ; [ORIG 16-BIT INS]
     389 00000050 6800              LDR       A1, [A1, #0]          ; [DPU_3_PIPE] |439|  ; [ORIG 16-BIT INS]
     390                    $C$DW$36        .dwtag  DW_TAG_TI_branch
     391                            .dwattr $C$DW$36, DW_AT_low_pc(0x00)
     392                            .dwattr $C$DW$36, DW_AT_name("UARTEnable")
     393                            .dwattr $C$DW$36, DW_AT_TI_call
     394                    
     395 00000052 FFFEF7FF!         BL        UARTEnable            ; [DPU_3_PIPE] |439|  ; [KEEP 32-BIT INS]
     396                            ; CALL OCCURS {UARTEnable }      ; [] |439| 
     397                            .dwpsn  file "../Drivers/uartstdio.c",line 440,column 1,is_stmt,isa 1
     398                    ;* --------------------------------------------------------------------------*
     399                    ||$C$L1||:    
     400                    $C$DW$37        .dwtag  DW_TAG_TI_branch
     401                            .dwattr $C$DW$37, DW_AT_low_pc(0x00)
     402                            .dwattr $C$DW$37, DW_AT_TI_return
     403                    
     404 00000056 BD0E              POP       {A2, A3, A4, PC}      ; [DPU_3_PIPE]  ; [ORIG 16-BIT INS]
     405                            .dwcfi  cfa_offset, 0
     406                            ; BRANCH OCCURS                  ; [] 
     407                            .dwattr $C$DW$27, DW_AT_TI_end_file("../Drivers/uartstdio.c")
     408                            .dwattr $C$DW$27, DW_AT_TI_end_line(0x1b8)
     409                            .dwattr $C$DW$27, DW_AT_TI_end_column(0x01)
     410                            .dwendentry
     411                            .dwendtag $C$DW$27
     412                    
     413 00000058                   .sect   ".text"
     414                            .clink
     415                            .thumbfunc UARTwrite
     416 00000058                   .thumb
     417                            .global UARTwrite
     418                    
     419                    $C$DW$38        .dwtag  DW_TAG_subprogram
     420                            .dwattr $C$DW$38, DW_AT_name("UARTwrite")
     421                            .dwattr $C$DW$38, DW_AT_low_pc(UARTwrite)
     422                            .dwattr $C$DW$38, DW_AT_high_pc(0x00)
     423                            .dwattr $C$DW$38, DW_AT_TI_symbol_name("UARTwrite")
     424                            .dwattr $C$DW$38, DW_AT_external
     425                            .dwattr $C$DW$38, DW_AT_type(*$C$DW$T$10)
     426                            .dwattr $C$DW$38, DW_AT_TI_begin_file("../Drivers/uartstdio.c")
     427                            .dwattr $C$DW$38, DW_AT_TI_begin_line(0x1d5)
     428                            .dwattr $C$DW$38, DW_AT_TI_begin_column(0x01)
     429                            .dwattr $C$DW$38, DW_AT_decl_file("../Drivers/uartstdio.c")
     430                            .dwattr $C$DW$38, DW_AT_decl_line(0x1d5)
     431                            .dwattr $C$DW$38, DW_AT_decl_column(0x01)
     432                            .dwattr $C$DW$38, DW_AT_TI_max_frame_size(0x10)
     433                            .dwpsn  file "../Drivers/uartstdio.c",line 470,column 1,is_stmt,address UARTwrite,isa 1
     434                    
     435                            .dwfde $C$DW$CIE, UARTwrite
     436                    $C$DW$39        .dwtag  DW_TAG_formal_parameter
     437                            .dwattr $C$DW$39, DW_AT_name("pcBuf")
     438                            .dwattr $C$DW$39, DW_AT_TI_symbol_name("pcBuf")
     439                            .dwattr $C$DW$39, DW_AT_type(*$C$DW$T$30)
     440                            .dwattr $C$DW$39, DW_AT_location[DW_OP_reg0]
TI ARM Assembler PC v15.12.1 Tue Sep 13 14:05:54 2016

Tools Copyright (c) 1996-2015 Texas Instruments Incorporated
uartstdio.asm                                                        PAGE    9

     441                    
     442                    $C$DW$40        .dwtag  DW_TAG_formal_parameter
     443                            .dwattr $C$DW$40, DW_AT_name("ulLen")
     444                            .dwattr $C$DW$40, DW_AT_TI_symbol_name("ulLen")
     445                            .dwattr $C$DW$40, DW_AT_type(*$C$DW$T$13)
     446                            .dwattr $C$DW$40, DW_AT_location[DW_OP_reg1]
     447                    
     448                    
     449                    ;*****************************************************************************
     450                    ;* FUNCTION NAME: UARTwrite                                                  *
     451                    ;*                                                                           *
     452                    ;*   Regs Modified     : A1,A2,A3,A4,V9,SP,LR,SR                             *
     453                    ;*   Regs Used         : A1,A2,A3,A4,V9,SP,LR,SR                             *
     454                    ;*   Local Frame Size  : 0 Args + 12 Auto + 4 Save = 16 byte                 *
     455                    ;*****************************************************************************
     456 00000058           UARTwrite:
     457                    ;* --------------------------------------------------------------------------*
     458                            .dwcfi  cfa_offset, 0
     459 00000058 B50E              PUSH      {A2, A3, A4, LR}      ; [DPU_3_PIPE]  ; [ORIG 16-BIT INS]
     460                            .dwcfi  cfa_offset, 16
     461                            .dwcfi  save_reg_to_mem, 14, -4
     462                            .dwcfi  save_reg_to_mem, 3, -8
     463                            .dwcfi  save_reg_to_mem, 2, -12
     464                            .dwcfi  save_reg_to_mem, 1, -16
     465                    $C$DW$41        .dwtag  DW_TAG_variable
     466                            .dwattr $C$DW$41, DW_AT_name("pcBuf")
     467                            .dwattr $C$DW$41, DW_AT_TI_symbol_name("pcBuf")
     468                            .dwattr $C$DW$41, DW_AT_type(*$C$DW$T$30)
     469                            .dwattr $C$DW$41, DW_AT_location[DW_OP_breg13 0]
     470                    
     471                    $C$DW$42        .dwtag  DW_TAG_variable
     472                            .dwattr $C$DW$42, DW_AT_name("ulLen")
     473                            .dwattr $C$DW$42, DW_AT_TI_symbol_name("ulLen")
     474                            .dwattr $C$DW$42, DW_AT_type(*$C$DW$T$13)
     475                            .dwattr $C$DW$42, DW_AT_location[DW_OP_breg13 4]
     476                    
     477                    $C$DW$43        .dwtag  DW_TAG_variable
     478                            .dwattr $C$DW$43, DW_AT_name("uIdx")
     479                            .dwattr $C$DW$43, DW_AT_TI_symbol_name("uIdx")
     480                            .dwattr $C$DW$43, DW_AT_type(*$C$DW$T$11)
     481                            .dwattr $C$DW$43, DW_AT_location[DW_OP_breg13 8]
     482                    
     483 0000005a 9101              STR       A2, [SP, #4]          ; [DPU_3_PIPE] |470|  ; [ORIG 16-BIT INS]
     484 0000005c 9000              STR       A1, [SP, #0]          ; [DPU_3_PIPE] |470|  ; [ORIG 16-BIT INS]
     485                            .dwpsn  file "../Drivers/uartstdio.c",line 548,column 9,is_stmt,isa 1
     486 0000005e 2000              MOVS      A1, #0                ; [DPU_3_PIPE] |548|  ; [ORIG 16-BIT INS]
     487 00000060 9002              STR       A1, [SP, #8]          ; [DPU_3_PIPE] |548|  ; [ORIG 16-BIT INS]
     488                            .dwpsn  file "../Drivers/uartstdio.c",line 548,column 19,is_stmt,isa 1
     489 00000062 9801              LDR       A1, [SP, #4]          ; [DPU_3_PIPE] |548|  ; [ORIG 16-BIT INS]
     490 00000064 9902              LDR       A2, [SP, #8]          ; [DPU_3_PIPE] |548|  ; [ORIG 16-BIT INS]
     491 00000066 4288              CMP       A1, A2                ; [DPU_3_PIPE] |548|  ; [ORIG 16-BIT INS]
     492 00000068 D917              BLS       ||$C$L4||             ; [DPU_3_PIPE] |548|  ; [ORIG 16-BIT INS]
     493                            ; BRANCHCC OCCURS {||$C$L4||}    ; [] |548| 
     494                    ;* --------------------------------------------------------------------------*
     495                    ;*   BEGIN LOOP ||$C$L2||
TI ARM Assembler PC v15.12.1 Tue Sep 13 14:05:54 2016

Tools Copyright (c) 1996-2015 Texas Instruments Incorporated
uartstdio.asm                                                        PAGE   10

     496                    ;*
     497                    ;*   Loop source line                : 548
     498                    ;*   Loop closing brace source line  : 563
     499                    ;*   Known Minimum Trip Count        : 1
     500                    ;*   Known Maximum Trip Count        : 4294967295
     501                    ;*   Known Max Trip Count Factor     : 1
     502                    ;* --------------------------------------------------------------------------*
     503 0000006a           ||$C$L2||:    
     504                            .dwpsn  file "../Drivers/uartstdio.c",line 554,column 9,is_stmt,isa 1
     505 0000006a 9800              LDR       A1, [SP, #0]          ; [DPU_3_PIPE] |554|  ; [ORIG 16-BIT INS]
     506 0000006c 9902              LDR       A2, [SP, #8]          ; [DPU_3_PIPE] |554|  ; [ORIG 16-BIT INS]
     507 0000006e 5C08              LDRB      A1, [A2, +A1]         ; [DPU_3_PIPE] |554|  ; [ORIG 16-BIT INS]
     508 00000070 280A              CMP       A1, #10               ; [DPU_3_PIPE] |554|  ; [ORIG 16-BIT INS]
     509 00000072 D104              BNE       ||$C$L3||             ; [DPU_3_PIPE] |554|  ; [ORIG 16-BIT INS]
     510                            ; BRANCHCC OCCURS {||$C$L3||}    ; [] |554| 
     511                    ;* --------------------------------------------------------------------------*
     512                            .dwpsn  file "../Drivers/uartstdio.c",line 556,column 13,is_stmt,isa 1
     513 00000074 483E              LDR       A1, $C$CON2           ; [DPU_3_PIPE] |556|  ; [ORIG 16-BIT INS]
     514 00000076 6800              LDR       A1, [A1, #0]          ; [DPU_3_PIPE] |556|  ; [ORIG 16-BIT INS]
     515 00000078 210D              MOVS      A2, #13               ; [DPU_3_PIPE] |556|  ; [ORIG 16-BIT INS]
     516                    $C$DW$44        .dwtag  DW_TAG_TI_branch
     517                            .dwattr $C$DW$44, DW_AT_low_pc(0x00)
     518                            .dwattr $C$DW$44, DW_AT_name("UARTCharPut")
     519                            .dwattr $C$DW$44, DW_AT_TI_call
     520                    
     521 0000007a FFFEF7FF!         BL        UARTCharPut           ; [DPU_3_PIPE] |556|  ; [KEEP 32-BIT INS]
     522                            ; CALL OCCURS {UARTCharPut }     ; [] |556| 
     523                    ;* --------------------------------------------------------------------------*
     524 0000007e           ||$C$L3||:    
     525                            .dwpsn  file "../Drivers/uartstdio.c",line 562,column 9,is_stmt,isa 1
     526 0000007e 9800              LDR       A1, [SP, #0]          ; [DPU_3_PIPE] |562|  ; [ORIG 16-BIT INS]
     527 00000080 9902              LDR       A2, [SP, #8]          ; [DPU_3_PIPE] |562|  ; [ORIG 16-BIT INS]
     528 00000082 4A3B              LDR       A3, $C$CON2           ; [DPU_3_PIPE] |562|  ; [ORIG 16-BIT INS]
     529 00000084 5C09              LDRB      A2, [A2, +A1]         ; [DPU_3_PIPE] |562|  ; [ORIG 16-BIT INS]
     530 00000086 6810              LDR       A1, [A3, #0]          ; [DPU_3_PIPE] |562|  ; [ORIG 16-BIT INS]
     531                    $C$DW$45        .dwtag  DW_TAG_TI_branch
     532                            .dwattr $C$DW$45, DW_AT_low_pc(0x00)
     533                            .dwattr $C$DW$45, DW_AT_name("UARTCharPut")
     534                            .dwattr $C$DW$45, DW_AT_TI_call
     535                    
     536 00000088 FFFEF7FF!         BL        UARTCharPut           ; [DPU_3_PIPE] |562|  ; [KEEP 32-BIT INS]
     537                            ; CALL OCCURS {UARTCharPut }     ; [] |562| 
     538                            .dwpsn  file "../Drivers/uartstdio.c",line 548,column 33,is_stmt,isa 1
     539 0000008c 9802              LDR       A1, [SP, #8]          ; [DPU_3_PIPE] |548|  ; [ORIG 16-BIT INS]
     540 0000008e 1C40              ADDS      A1, A1, #1            ; [DPU_3_PIPE] |548|  ; [ORIG 16-BIT INS]
     541 00000090 9002              STR       A1, [SP, #8]          ; [DPU_3_PIPE] |548|  ; [ORIG 16-BIT INS]
     542                            .dwpsn  file "../Drivers/uartstdio.c",line 548,column 19,is_stmt,isa 1
     543 00000092 9801              LDR       A1, [SP, #4]          ; [DPU_3_PIPE] |548|  ; [ORIG 16-BIT INS]
     544 00000094 9902              LDR       A2, [SP, #8]          ; [DPU_3_PIPE] |548|  ; [ORIG 16-BIT INS]
     545 00000096 4288              CMP       A1, A2                ; [DPU_3_PIPE] |548|  ; [ORIG 16-BIT INS]
     546 00000098 D8E7              BHI       ||$C$L2||             ; [DPU_3_PIPE] |548|  ; [ORIG 16-BIT INS]
     547                            ; BRANCHCC OCCURS {||$C$L2||}    ; [] |548| 
     548                    ;* --------------------------------------------------------------------------*
     549 0000009a           ||$C$L4||:    
     550                            .dwpsn  file "../Drivers/uartstdio.c",line 568,column 5,is_stmt,isa 1
TI ARM Assembler PC v15.12.1 Tue Sep 13 14:05:54 2016

Tools Copyright (c) 1996-2015 Texas Instruments Incorporated
uartstdio.asm                                                        PAGE   11

     551 0000009a 9802              LDR       A1, [SP, #8]          ; [DPU_3_PIPE] |568|  ; [ORIG 16-BIT INS]
     552                            .dwpsn  file "../Drivers/uartstdio.c",line 570,column 1,is_stmt,isa 1
     553                    $C$DW$46        .dwtag  DW_TAG_TI_branch
     554                            .dwattr $C$DW$46, DW_AT_low_pc(0x00)
     555                            .dwattr $C$DW$46, DW_AT_TI_return
     556                    
     557 0000009c BD0E              POP       {A2, A3, A4, PC}      ; [DPU_3_PIPE]  ; [ORIG 16-BIT INS]
     558                            .dwcfi  cfa_offset, 0
     559                            ; BRANCH OCCURS                  ; [] 
     560                            .dwattr $C$DW$38, DW_AT_TI_end_file("../Drivers/uartstdio.c")
     561                            .dwattr $C$DW$38, DW_AT_TI_end_line(0x23a)
     562                            .dwattr $C$DW$38, DW_AT_TI_end_column(0x01)
     563                            .dwendentry
     564                            .dwendtag $C$DW$38
     565                    
     566 0000009e                   .sect   ".text"
     567                            .clink
     568                            .thumbfunc UARTgets
     569 0000009e                   .thumb
     570                            .global UARTgets
     571                    
     572                    $C$DW$47        .dwtag  DW_TAG_subprogram
     573                            .dwattr $C$DW$47, DW_AT_name("UARTgets")
     574                            .dwattr $C$DW$47, DW_AT_low_pc(UARTgets)
     575                            .dwattr $C$DW$47, DW_AT_high_pc(0x00)
     576                            .dwattr $C$DW$47, DW_AT_TI_symbol_name("UARTgets")
     577                            .dwattr $C$DW$47, DW_AT_external
     578                            .dwattr $C$DW$47, DW_AT_type(*$C$DW$T$10)
     579                            .dwattr $C$DW$47, DW_AT_TI_begin_file("../Drivers/uartstdio.c")
     580                            .dwattr $C$DW$47, DW_AT_TI_begin_line(0x25a)
     581                            .dwattr $C$DW$47, DW_AT_TI_begin_column(0x01)
     582                            .dwattr $C$DW$47, DW_AT_decl_file("../Drivers/uartstdio.c")
     583                            .dwattr $C$DW$47, DW_AT_decl_line(0x25a)
     584                            .dwattr $C$DW$47, DW_AT_decl_column(0x01)
     585                            .dwattr $C$DW$47, DW_AT_TI_max_frame_size(0x18)
     586                            .dwpsn  file "../Drivers/uartstdio.c",line 603,column 1,is_stmt,address UARTgets,isa 1
     587                    
     588                            .dwfde $C$DW$CIE, UARTgets
     589                    $C$DW$48        .dwtag  DW_TAG_variable
     590                            .dwattr $C$DW$48, DW_AT_name("bLastWasCR")
     591                            .dwattr $C$DW$48, DW_AT_TI_symbol_name("bLastWasCR$1")
     592                            .dwattr $C$DW$48, DW_AT_type(*$C$DW$T$6)
     593                            .dwattr $C$DW$48, DW_AT_location[DW_OP_addr bLastWasCR$1]
     594                    
     595                    $C$DW$49        .dwtag  DW_TAG_formal_parameter
     596                            .dwattr $C$DW$49, DW_AT_name("pcBuf")
     597                            .dwattr $C$DW$49, DW_AT_TI_symbol_name("pcBuf")
     598                            .dwattr $C$DW$49, DW_AT_type(*$C$DW$T$38)
     599                            .dwattr $C$DW$49, DW_AT_location[DW_OP_reg0]
     600                    
     601                    $C$DW$50        .dwtag  DW_TAG_formal_parameter
     602                            .dwattr $C$DW$50, DW_AT_name("ulLen")
     603                            .dwattr $C$DW$50, DW_AT_TI_symbol_name("ulLen")
     604                            .dwattr $C$DW$50, DW_AT_type(*$C$DW$T$13)
     605                            .dwattr $C$DW$50, DW_AT_location[DW_OP_reg1]
TI ARM Assembler PC v15.12.1 Tue Sep 13 14:05:54 2016

Tools Copyright (c) 1996-2015 Texas Instruments Incorporated
uartstdio.asm                                                        PAGE   12

     606                    
     607                    
     608                    ;*****************************************************************************
     609                    ;* FUNCTION NAME: UARTgets                                                   *
     610                    ;*                                                                           *
     611                    ;*   Regs Modified     : A1,A2,A3,A4,V9,SP,LR,SR                             *
     612                    ;*   Regs Used         : A1,A2,A3,A4,V9,SP,LR,SR                             *
     613                    ;*   Local Frame Size  : 0 Args + 16 Auto + 4 Save = 20 byte                 *
     614                    ;*****************************************************************************
     615 0000009e           UARTgets:
     616                    ;* --------------------------------------------------------------------------*
     617                            .dwcfi  cfa_offset, 0
     618 0000009e B500              PUSH      {LR}                  ; [DPU_3_PIPE]  ; [ORIG 16-BIT INS]
     619                            .dwcfi  cfa_offset, 4
     620                            .dwcfi  save_reg_to_mem, 14, -4
     621 000000a0 0D14F1AD          SUB       SP, SP, #20           ; [DPU_3_PIPE]  ; [KEEP 32-BIT INS]
     622                            .dwcfi  cfa_offset, 24
     623                    $C$DW$51        .dwtag  DW_TAG_variable
     624                            .dwattr $C$DW$51, DW_AT_name("pcBuf")
     625                            .dwattr $C$DW$51, DW_AT_TI_symbol_name("pcBuf")
     626                            .dwattr $C$DW$51, DW_AT_type(*$C$DW$T$38)
     627                            .dwattr $C$DW$51, DW_AT_location[DW_OP_breg13 0]
     628                    
     629                    $C$DW$52        .dwtag  DW_TAG_variable
     630                            .dwattr $C$DW$52, DW_AT_name("ulLen")
     631                            .dwattr $C$DW$52, DW_AT_TI_symbol_name("ulLen")
     632                            .dwattr $C$DW$52, DW_AT_type(*$C$DW$T$13)
     633                            .dwattr $C$DW$52, DW_AT_location[DW_OP_breg13 4]
     634                    
     635                    $C$DW$53        .dwtag  DW_TAG_variable
     636                            .dwattr $C$DW$53, DW_AT_name("ulCount")
     637                            .dwattr $C$DW$53, DW_AT_TI_symbol_name("ulCount")
     638                            .dwattr $C$DW$53, DW_AT_type(*$C$DW$T$13)
     639                            .dwattr $C$DW$53, DW_AT_location[DW_OP_breg13 8]
     640                    
     641                    $C$DW$54        .dwtag  DW_TAG_variable
     642                            .dwattr $C$DW$54, DW_AT_name("cChar")
     643                            .dwattr $C$DW$54, DW_AT_TI_symbol_name("cChar")
     644                            .dwattr $C$DW$54, DW_AT_type(*$C$DW$T$6)
     645                            .dwattr $C$DW$54, DW_AT_location[DW_OP_breg13 12]
     646                    
     647 000000a4 9101              STR       A2, [SP, #4]          ; [DPU_3_PIPE] |603|  ; [ORIG 16-BIT INS]
     648 000000a6 9000              STR       A1, [SP, #0]          ; [DPU_3_PIPE] |603|  ; [ORIG 16-BIT INS]
     649                            .dwpsn  file "../Drivers/uartstdio.c",line 676,column 27,is_stmt,isa 1
     650 000000a8 2000              MOVS      A1, #0                ; [DPU_3_PIPE] |676|  ; [ORIG 16-BIT INS]
     651 000000aa 9002              STR       A1, [SP, #8]          ; [DPU_3_PIPE] |676|  ; [ORIG 16-BIT INS]
     652                            .dwpsn  file "../Drivers/uartstdio.c",line 691,column 5,is_stmt,isa 1
     653 000000ac 9801              LDR       A1, [SP, #4]          ; [DPU_3_PIPE] |691|  ; [ORIG 16-BIT INS]
     654 000000ae 1E40              SUBS      A1, A1, #1            ; [DPU_3_PIPE] |691|  ; [ORIG 16-BIT INS]
     655 000000b0 9001              STR       A1, [SP, #4]          ; [DPU_3_PIPE] |691|  ; [ORIG 16-BIT INS]
     656                            .dwpsn  file "../Drivers/uartstdio.c",line 696,column 11,is_stmt,isa 1
     657                    ;* --------------------------------------------------------------------------*
     658                    ;*   BEGIN LOOP ||$C$L5||
     659                    ;*
     660                    ;*   Loop source line                : 696
TI ARM Assembler PC v15.12.1 Tue Sep 13 14:05:54 2016

Tools Copyright (c) 1996-2015 Texas Instruments Incorporated
uartstdio.asm                                                        PAGE   13

     661                    ;*   Loop closing brace source line  : 784
     662                    ;*   Known Minimum Trip Count        : 1
     663                    ;*   Known Maximum Trip Count        : 4294967295
     664                    ;*   Known Max Trip Count Factor     : 1
     665                    ;* --------------------------------------------------------------------------*
     666 000000b2           ||$C$L5||:    
     667                            .dwpsn  file "../Drivers/uartstdio.c",line 701,column 9,is_stmt,isa 1
     668 000000b2 482F              LDR       A1, $C$CON2           ; [DPU_3_PIPE] |701|  ; [ORIG 16-BIT INS]
     669 000000b4 6800              LDR       A1, [A1, #0]          ; [DPU_3_PIPE] |701|  ; [ORIG 16-BIT INS]
     670                    $C$DW$55        .dwtag  DW_TAG_TI_branch
     671                            .dwattr $C$DW$55, DW_AT_low_pc(0x00)
     672                            .dwattr $C$DW$55, DW_AT_name("UARTCharGet")
     673                            .dwattr $C$DW$55, DW_AT_TI_call
     674                    
     675 000000b6 FFFEF7FF!         BL        UARTCharGet           ; [DPU_3_PIPE] |701|  ; [KEEP 32-BIT INS]
     676                            ; CALL OCCURS {UARTCharGet }     ; [] |701| 
     677 000000ba 000CF88D          STRB      A1, [SP, #12]         ; [DPU_3_PIPE] |701|  ; [KEEP 32-BIT INS]
     678                            .dwpsn  file "../Drivers/uartstdio.c",line 706,column 9,is_stmt,isa 1
     679 000000be 000CF89D          LDRB      A1, [SP, #12]         ; [DPU_3_PIPE] |706|  ; [KEEP 32-BIT INS]
     680 000000c2 2808              CMP       A1, #8                ; [DPU_3_PIPE] |706|  ; [ORIG 16-BIT INS]
     681 000000c4 D10A              BNE       ||$C$L6||             ; [DPU_3_PIPE] |706|  ; [ORIG 16-BIT INS]
     682                            ; BRANCHCC OCCURS {||$C$L6||}    ; [] |706| 
     683                    ;* --------------------------------------------------------------------------*
     684                            .dwpsn  file "../Drivers/uartstdio.c",line 712,column 13,is_stmt,isa 1
     685 000000c6 9802              LDR       A1, [SP, #8]          ; [DPU_3_PIPE] |712|  ; [ORIG 16-BIT INS]
     686 000000c8 2800              CMP       A1, #0                ; [DPU_3_PIPE] |712|  ; [ORIG 16-BIT INS]
     687 000000ca D0F2              BEQ       ||$C$L5||             ; [DPU_3_PIPE] |712|  ; [ORIG 16-BIT INS]
     688                            ; BRANCHCC OCCURS {||$C$L5||}    ; [] |712| 
     689                    ;* --------------------------------------------------------------------------*
     690                            .dwpsn  file "../Drivers/uartstdio.c",line 717,column 17,is_stmt,isa 1
     691 000000cc A025              ADR       A1, $C$SL2            ; [DPU_3_PIPE] |717|  ; [ORIG 16-BIT INS]
     692 000000ce 2103              MOVS      A2, #3                ; [DPU_3_PIPE] |717|  ; [ORIG 16-BIT INS]
     693                    $C$DW$56        .dwtag  DW_TAG_TI_branch
     694                            .dwattr $C$DW$56, DW_AT_low_pc(0x00)
     695                            .dwattr $C$DW$56, DW_AT_name("UARTwrite")
     696                            .dwattr $C$DW$56, DW_AT_TI_call
     697                    
     698 000000d0 FFC2F7FF          BL        UARTwrite             ; [DPU_3_PIPE] |717|  ; [KEEP 32-BIT INS]
     699                            ; CALL OCCURS {UARTwrite }       ; [] |717| 
     700                            .dwpsn  file "../Drivers/uartstdio.c",line 722,column 17,is_stmt,isa 1
     701 000000d4 9802              LDR       A1, [SP, #8]          ; [DPU_3_PIPE] |722|  ; [ORIG 16-BIT INS]
     702 000000d6 1E40              SUBS      A1, A1, #1            ; [DPU_3_PIPE] |722|  ; [ORIG 16-BIT INS]
     703 000000d8 9002              STR       A1, [SP, #8]          ; [DPU_3_PIPE] |722|  ; [ORIG 16-BIT INS]
     704                            .dwpsn  file "../Drivers/uartstdio.c",line 728,column 13,is_stmt,isa 1
     705 000000da E7EA              B         ||$C$L5||             ; [DPU_3_PIPE] |728|  ; [ORIG 16-BIT INS]
     706                            ; BRANCH OCCURS {||$C$L5||}      ; [] |728| 
     707                    ;* --------------------------------------------------------------------------*
     708 000000dc           ||$C$L6||:    
     709                            .dwpsn  file "../Drivers/uartstdio.c",line 735,column 9,is_stmt,isa 1
     710 000000dc 000CF89D          LDRB      A1, [SP, #12]         ; [DPU_3_PIPE] |735|  ; [KEEP 32-BIT INS]
     711 000000e0 280A              CMP       A1, #10               ; [DPU_3_PIPE] |735|  ; [ORIG 16-BIT INS]
     712 000000e2 D106              BNE       ||$C$L7||             ; [DPU_3_PIPE] |735|  ; [ORIG 16-BIT INS]
     713                            ; BRANCHCC OCCURS {||$C$L7||}    ; [] |735| 
     714                    ;* --------------------------------------------------------------------------*
     715 000000e4 4824              LDR       A1, $C$CON4           ; [DPU_3_PIPE] |735|  ; [ORIG 16-BIT INS]
TI ARM Assembler PC v15.12.1 Tue Sep 13 14:05:54 2016

Tools Copyright (c) 1996-2015 Texas Instruments Incorporated
uartstdio.asm                                                        PAGE   14

     716 000000e6 7800              LDRB      A1, [A1, #0]          ; [DPU_3_PIPE] |735|  ; [ORIG 16-BIT INS]
     717 000000e8 B118              CBZ       A1, ||$C$L7||         ; []  ; [ORIG 16-BIT INS]
     718                            ; BRANCHCC OCCURS {||$C$L7||}    ; [] |735| 
     719                    ;* --------------------------------------------------------------------------*
     720                            .dwpsn  file "../Drivers/uartstdio.c",line 737,column 13,is_stmt,isa 1
     721 000000ea 4923              LDR       A2, $C$CON4           ; [DPU_3_PIPE] |737|  ; [ORIG 16-BIT INS]
     722 000000ec 2000              MOVS      A1, #0                ; [DPU_3_PIPE] |737|  ; [ORIG 16-BIT INS]
     723 000000ee 7008              STRB      A1, [A2, #0]          ; [DPU_3_PIPE] |737|  ; [ORIG 16-BIT INS]
     724                            .dwpsn  file "../Drivers/uartstdio.c",line 738,column 13,is_stmt,isa 1
     725 000000f0 E7DF              B         ||$C$L5||             ; [DPU_3_PIPE] |738|  ; [ORIG 16-BIT INS]
     726                            ; BRANCH OCCURS {||$C$L5||}      ; [] |738| 
     727                    ;* --------------------------------------------------------------------------*
     728 000000f2           ||$C$L7||:    
     729                            .dwpsn  file "../Drivers/uartstdio.c",line 744,column 9,is_stmt,isa 1
     730 000000f2 000CF89D          LDRB      A1, [SP, #12]         ; [DPU_3_PIPE] |744|  ; [KEEP 32-BIT INS]
     731 000000f6 280D              CMP       A1, #13               ; [DPU_3_PIPE] |744|  ; [ORIG 16-BIT INS]
     732 000000f8 D007              BEQ       ||$C$L8||             ; [DPU_3_PIPE] |744|  ; [ORIG 16-BIT INS]
     733                            ; BRANCHCC OCCURS {||$C$L8||}    ; [] |744| 
     734                    ;* --------------------------------------------------------------------------*
     735 000000fa 000CF89D          LDRB      A1, [SP, #12]         ; [DPU_3_PIPE] |744|  ; [KEEP 32-BIT INS]
     736 000000fe 280A              CMP       A1, #10               ; [DPU_3_PIPE] |744|  ; [ORIG 16-BIT INS]
     737 00000100 D003              BEQ       ||$C$L8||             ; [DPU_3_PIPE] |744|  ; [ORIG 16-BIT INS]
     738                            ; BRANCHCC OCCURS {||$C$L8||}    ; [] |744| 
     739                    ;* --------------------------------------------------------------------------*
     740 00000102 000CF89D          LDRB      A1, [SP, #12]         ; [DPU_3_PIPE] |744|  ; [KEEP 32-BIT INS]
     741 00000106 281B              CMP       A1, #27               ; [DPU_3_PIPE] |744|  ; [ORIG 16-BIT INS]
     742 00000108 D107              BNE       ||$C$L9||             ; [DPU_3_PIPE] |744|  ; [ORIG 16-BIT INS]
     743                            ; BRANCHCC OCCURS {||$C$L9||}    ; [] |744| 
     744                    ;* --------------------------------------------------------------------------*
     745 0000010a           ||$C$L8||:    
     746                            .dwpsn  file "../Drivers/uartstdio.c",line 751,column 13,is_stmt,isa 1
     747 0000010a 000CF89D          LDRB      A1, [SP, #12]         ; [DPU_3_PIPE] |751|  ; [KEEP 32-BIT INS]
     748 0000010e 280D              CMP       A1, #13               ; [DPU_3_PIPE] |751|  ; [ORIG 16-BIT INS]
     749 00000110 D116              BNE       ||$C$L10||            ; [DPU_3_PIPE] |751|  ; [ORIG 16-BIT INS]
     750                            ; BRANCHCC OCCURS {||$C$L10||}   ; [] |751| 
     751                    ;* --------------------------------------------------------------------------*
     752                            .dwpsn  file "../Drivers/uartstdio.c",line 753,column 17,is_stmt,isa 1
     753 00000112 4919              LDR       A2, $C$CON4           ; [DPU_3_PIPE] |753|  ; [ORIG 16-BIT INS]
     754 00000114 2001              MOVS      A1, #1                ; [DPU_3_PIPE] |753|  ; [ORIG 16-BIT INS]
     755 00000116 7008              STRB      A1, [A2, #0]          ; [DPU_3_PIPE] |753|  ; [ORIG 16-BIT INS]
     756                            .dwpsn  file "../Drivers/uartstdio.c",line 759,column 13,is_stmt,isa 1
     757 00000118 E012              B         ||$C$L10||            ; [DPU_3_PIPE] |759|  ; [ORIG 16-BIT INS]
     758                            ; BRANCH OCCURS {||$C$L10||}     ; [] |759| 
     759                    ;* --------------------------------------------------------------------------*
     760 0000011a           ||$C$L9||:    
     761                            .dwpsn  file "../Drivers/uartstdio.c",line 767,column 9,is_stmt,isa 1
     762 0000011a 9801              LDR       A1, [SP, #4]          ; [DPU_3_PIPE] |767|  ; [ORIG 16-BIT INS]
     763 0000011c 9902              LDR       A2, [SP, #8]          ; [DPU_3_PIPE] |767|  ; [ORIG 16-BIT INS]
     764 0000011e 4288              CMP       A1, A2                ; [DPU_3_PIPE] |767|  ; [ORIG 16-BIT INS]
     765 00000120 D9C7              BLS       ||$C$L5||             ; [DPU_3_PIPE] |767|  ; [ORIG 16-BIT INS]
     766                            ; BRANCHCC OCCURS {||$C$L5||}    ; [] |767| 
     767                    ;* --------------------------------------------------------------------------*
     768                            .dwpsn  file "../Drivers/uartstdio.c",line 772,column 13,is_stmt,isa 1
     769 00000122 9900              LDR       A2, [SP, #0]          ; [DPU_3_PIPE] |772|  ; [ORIG 16-BIT INS]
     770 00000124 9A02              LDR       A3, [SP, #8]          ; [DPU_3_PIPE] |772|  ; [ORIG 16-BIT INS]
TI ARM Assembler PC v15.12.1 Tue Sep 13 14:05:54 2016

Tools Copyright (c) 1996-2015 Texas Instruments Incorporated
uartstdio.asm                                                        PAGE   15

     771 00000126 000CF89D          LDRB      A1, [SP, #12]         ; [DPU_3_PIPE] |772|  ; [KEEP 32-BIT INS]
     772 0000012a 5450              STRB      A1, [A3, +A2]         ; [DPU_3_PIPE] |772|  ; [ORIG 16-BIT INS]
     773                            .dwpsn  file "../Drivers/uartstdio.c",line 777,column 13,is_stmt,isa 1
     774 0000012c 9802              LDR       A1, [SP, #8]          ; [DPU_3_PIPE] |777|  ; [ORIG 16-BIT INS]
     775 0000012e 1C40              ADDS      A1, A1, #1            ; [DPU_3_PIPE] |777|  ; [ORIG 16-BIT INS]
     776 00000130 9002              STR       A1, [SP, #8]          ; [DPU_3_PIPE] |777|  ; [ORIG 16-BIT INS]
     777                            .dwpsn  file "../Drivers/uartstdio.c",line 782,column 13,is_stmt,isa 1
     778 00000132 480F              LDR       A1, $C$CON2           ; [DPU_3_PIPE] |782|  ; [ORIG 16-BIT INS]
     779 00000134 100CF89D          LDRB      A2, [SP, #12]         ; [DPU_3_PIPE] |782|  ; [KEEP 32-BIT INS]
     780 00000138 6800              LDR       A1, [A1, #0]          ; [DPU_3_PIPE] |782|  ; [ORIG 16-BIT INS]
     781                    $C$DW$57        .dwtag  DW_TAG_TI_branch
     782                            .dwattr $C$DW$57, DW_AT_low_pc(0x00)
     783                            .dwattr $C$DW$57, DW_AT_name("UARTCharPut")
     784                            .dwattr $C$DW$57, DW_AT_TI_call
     785                    
     786 0000013a FFFEF7FF!         BL        UARTCharPut           ; [DPU_3_PIPE] |782|  ; [KEEP 32-BIT INS]
     787                            ; CALL OCCURS {UARTCharPut }     ; [] |782| 
     788                            .dwpsn  file "../Drivers/uartstdio.c",line 696,column 11,is_stmt,isa 1
     789 0000013e E7B8              B         ||$C$L5||             ; [DPU_3_PIPE] |696|  ; [ORIG 16-BIT INS]
     790                            ; BRANCH OCCURS {||$C$L5||}      ; [] |696| 
     791                    ;* --------------------------------------------------------------------------*
     792 00000140           ||$C$L10||:    
     793                            .dwpsn  file "../Drivers/uartstdio.c",line 789,column 5,is_stmt,isa 1
     794 00000140 9800              LDR       A1, [SP, #0]          ; [DPU_3_PIPE] |789|  ; [ORIG 16-BIT INS]
     795 00000142 9902              LDR       A2, [SP, #8]          ; [DPU_3_PIPE] |789|  ; [ORIG 16-BIT INS]
     796 00000144 2200              MOVS      A3, #0                ; [DPU_3_PIPE] |789|  ; [ORIG 16-BIT INS]
     797 00000146 540A              STRB      A3, [A2, +A1]         ; [DPU_3_PIPE] |789|  ; [ORIG 16-BIT INS]
     798                            .dwpsn  file "../Drivers/uartstdio.c",line 794,column 5,is_stmt,isa 1
     799 00000148 A007              ADR       A1, $C$SL3            ; [DPU_3_PIPE] |794|  ; [ORIG 16-BIT INS]
     800 0000014a 2102              MOVS      A2, #2                ; [DPU_3_PIPE] |794|  ; [ORIG 16-BIT INS]
     801                    $C$DW$58        .dwtag  DW_TAG_TI_branch
     802                            .dwattr $C$DW$58, DW_AT_low_pc(0x00)
     803                            .dwattr $C$DW$58, DW_AT_name("UARTwrite")
     804                            .dwattr $C$DW$58, DW_AT_TI_call
     805                    
     806 0000014c FF84F7FF          BL        UARTwrite             ; [DPU_3_PIPE] |794|  ; [KEEP 32-BIT INS]
     807                            ; CALL OCCURS {UARTwrite }       ; [] |794| 
     808                            .dwpsn  file "../Drivers/uartstdio.c",line 799,column 5,is_stmt,isa 1
     809 00000150 9802              LDR       A1, [SP, #8]          ; [DPU_3_PIPE] |799|  ; [ORIG 16-BIT INS]
     810                            .dwpsn  file "../Drivers/uartstdio.c",line 801,column 1,is_stmt,isa 1
     811 00000152 B005              ADD       SP, SP, #20           ; [DPU_3_PIPE]  ; [ORIG 16-BIT INS]
     812                            .dwcfi  cfa_offset, 4
     813                    $C$DW$59        .dwtag  DW_TAG_TI_branch
     814                            .dwattr $C$DW$59, DW_AT_low_pc(0x00)
     815                            .dwattr $C$DW$59, DW_AT_TI_return
     816                    
     817 00000154 BD00              POP       {PC}                  ; [DPU_3_PIPE]  ; [ORIG 16-BIT INS]
     818                            .dwcfi  cfa_offset, 0
     819                            ; BRANCH OCCURS                  ; [] 
     820                            .dwattr $C$DW$47, DW_AT_TI_end_file("../Drivers/uartstdio.c")
     821                            .dwattr $C$DW$47, DW_AT_TI_end_line(0x321)
     822                            .dwattr $C$DW$47, DW_AT_TI_end_column(0x01)
     823                            .dwendentry
     824                            .dwendtag $C$DW$47
     825                    
TI ARM Assembler PC v15.12.1 Tue Sep 13 14:05:54 2016

Tools Copyright (c) 1996-2015 Texas Instruments Incorporated
uartstdio.asm                                                        PAGE   16

     826 00000156                   .sect   ".text"
     827                            .clink
     828                            .thumbfunc UARTgetc
     829 00000156                   .thumb
     830                            .global UARTgetc
     831                    
     832                    $C$DW$60        .dwtag  DW_TAG_subprogram
     833                            .dwattr $C$DW$60, DW_AT_name("UARTgetc")
     834                            .dwattr $C$DW$60, DW_AT_low_pc(UARTgetc)
     835                            .dwattr $C$DW$60, DW_AT_high_pc(0x00)
     836                            .dwattr $C$DW$60, DW_AT_TI_symbol_name("UARTgetc")
     837                            .dwattr $C$DW$60, DW_AT_external
     838                            .dwattr $C$DW$60, DW_AT_type(*$C$DW$T$6)
     839                            .dwattr $C$DW$60, DW_AT_TI_begin_file("../Drivers/uartstdio.c")
     840                            .dwattr $C$DW$60, DW_AT_TI_begin_line(0x333)
     841                            .dwattr $C$DW$60, DW_AT_TI_begin_column(0x01)
     842                            .dwattr $C$DW$60, DW_AT_decl_file("../Drivers/uartstdio.c")
     843                            .dwattr $C$DW$60, DW_AT_decl_line(0x333)
     844                            .dwattr $C$DW$60, DW_AT_decl_column(0x01)
     845                            .dwattr $C$DW$60, DW_AT_TI_max_frame_size(0x08)
     846                            .dwpsn  file "../Drivers/uartstdio.c",line 820,column 1,is_stmt,address UARTgetc,isa 1
     847                    
     848                            .dwfde $C$DW$CIE, UARTgetc
     849                    
     850                    ;*****************************************************************************
     851                    ;* FUNCTION NAME: UARTgetc                                                   *
     852                    ;*                                                                           *
     853                    ;*   Regs Modified     : A1,A2,A3,A4,V9,SP,LR,SR                             *
     854                    ;*   Regs Used         : A1,A2,A3,A4,V9,SP,LR,SR                             *
     855                    ;*   Local Frame Size  : 0 Args + 0 Auto + 4 Save = 4 byte                   *
     856                    ;*****************************************************************************
     857 00000156           UARTgetc:
     858                    ;* --------------------------------------------------------------------------*
     859                            .dwcfi  cfa_offset, 0
     860 00000156 B508              PUSH      {A4, LR}              ; [DPU_3_PIPE]  ; [ORIG 16-BIT INS]
     861                            .dwcfi  cfa_offset, 8
     862                            .dwcfi  save_reg_to_mem, 14, -4
     863                            .dwcfi  save_reg_to_mem, 3, -8
     864                            .dwpsn  file "../Drivers/uartstdio.c",line 850,column 5,is_stmt,isa 1
     865 00000158 4805              LDR       A1, $C$CON2           ; [DPU_3_PIPE] |850|  ; [ORIG 16-BIT INS]
     866 0000015a 6800              LDR       A1, [A1, #0]          ; [DPU_3_PIPE] |850|  ; [ORIG 16-BIT INS]
     867                    $C$DW$61        .dwtag  DW_TAG_TI_branch
     868                            .dwattr $C$DW$61, DW_AT_low_pc(0x00)
     869                            .dwattr $C$DW$61, DW_AT_name("UARTCharGet")
     870                            .dwattr $C$DW$61, DW_AT_TI_call
     871                    
     872 0000015c FFFEF7FF!         BL        UARTCharGet           ; [DPU_3_PIPE] |850|  ; [KEEP 32-BIT INS]
     873                            ; CALL OCCURS {UARTCharGet }     ; [] |850| 
     874 00000160 B2C0              UXTB      A1, A1                ; [DPU_3_PIPE] |850|  ; [ORIG 16-BIT INS]
     875                            .dwpsn  file "../Drivers/uartstdio.c",line 852,column 1,is_stmt,isa 1
     876                    $C$DW$62        .dwtag  DW_TAG_TI_branch
     877                            .dwattr $C$DW$62, DW_AT_low_pc(0x00)
     878                            .dwattr $C$DW$62, DW_AT_TI_return
     879                    
     880 00000162 BD08              POP       {A4, PC}              ; [DPU_3_PIPE]  ; [ORIG 16-BIT INS]
TI ARM Assembler PC v15.12.1 Tue Sep 13 14:05:54 2016

Tools Copyright (c) 1996-2015 Texas Instruments Incorporated
uartstdio.asm                                                        PAGE   17

     881                            .dwcfi  cfa_offset, 0
     882                            ; BRANCH OCCURS                  ; [] 
     883                            .dwattr $C$DW$60, DW_AT_TI_end_file("../Drivers/uartstdio.c")
     884                            .dwattr $C$DW$60, DW_AT_TI_end_line(0x354)
     885                            .dwattr $C$DW$60, DW_AT_TI_end_column(0x01)
     886                            .dwendentry
     887                            .dwendtag $C$DW$60
     888                    
     889                    ;******************************************************************************
     890                    ;* STRINGS                                                                    *
     891                    ;******************************************************************************
     892 00000164                   .sect   ".text"
     893                            .align  4
     894 00000164 08        ||$C$SL2||:     .string 8," ",8,0
         00000165 20       
         00000166 08       
         00000167 00       
     895                            .align  4
     896 00000168 0D        ||$C$SL3||:     .string 13,10,0
         00000169 0A       
         0000016a 00       
     897                    ;******************************************************************************
     898                    ;* CONSTANT TABLE                                                             *
     899                    ;******************************************************************************
     900 0000016b                   .sect   ".text"
     901                            .align  4
     902 0000016c 00000000! ||$C$CON1||:    .bits   g_ulUARTPeriph,32
     903                            .align  4
     904 00000170 00000000! ||$C$CON2||:    .bits   g_ulBase,32
     905                            .align  4
     906 00000174 00000000! ||$C$CON3||:    .bits   g_ulUARTBase,32
     907                            .align  4
     908 00000178 00000000! ||$C$CON4||:    .bits   bLastWasCR$1,32
     909 0000017c                   .sect   ".text"
     910                            .clink
     911                            .thumbfunc UARTprintf
     912 0000017c                   .thumb
     913                            .global UARTprintf
     914                    
     915                    $C$DW$63        .dwtag  DW_TAG_subprogram
     916                            .dwattr $C$DW$63, DW_AT_name("UARTprintf")
     917                            .dwattr $C$DW$63, DW_AT_low_pc(UARTprintf)
     918                            .dwattr $C$DW$63, DW_AT_high_pc(0x00)
     919                            .dwattr $C$DW$63, DW_AT_TI_symbol_name("UARTprintf")
     920                            .dwattr $C$DW$63, DW_AT_external
     921                            .dwattr $C$DW$63, DW_AT_TI_begin_file("../Drivers/uartstdio.c")
     922                            .dwattr $C$DW$63, DW_AT_TI_begin_line(0x37d)
     923                            .dwattr $C$DW$63, DW_AT_TI_begin_column(0x01)
     924                            .dwattr $C$DW$63, DW_AT_decl_file("../Drivers/uartstdio.c")
     925                            .dwattr $C$DW$63, DW_AT_decl_line(0x37d)
     926                            .dwattr $C$DW$63, DW_AT_decl_column(0x01)
     927                            .dwattr $C$DW$63, DW_AT_TI_max_frame_size(0x50)
     928                            .dwpsn  file "../Drivers/uartstdio.c",line 894,column 1,is_stmt,address UARTprintf,isa 1
     929                    
     930                            .dwfde $C$DW$CIE, UARTprintf
TI ARM Assembler PC v15.12.1 Tue Sep 13 14:05:54 2016

Tools Copyright (c) 1996-2015 Texas Instruments Incorporated
uartstdio.asm                                                        PAGE   18

     931                    $C$DW$64        .dwtag  DW_TAG_formal_parameter
     932                            .dwattr $C$DW$64, DW_AT_name("pcString")
     933                            .dwattr $C$DW$64, DW_AT_TI_symbol_name("pcString")
     934                            .dwattr $C$DW$64, DW_AT_type(*$C$DW$T$30)
     935                            .dwattr $C$DW$64, DW_AT_location[DW_OP_breg13 64]
     936                    $C$DW$65        .dwtag  DW_TAG_unspecified_parameters
     937                    
     938                    
     939                    
     940                    ;*****************************************************************************
     941                    ;* FUNCTION NAME: UARTprintf                                                 *
     942                    ;*                                                                           *
     943                    ;*   Regs Modified     : A1,A2,A3,A4,V4,V9,SP,LR,SR                          *
     944                    ;*   Regs Used         : A1,A2,A3,A4,V4,V9,SP,LR,SR                          *
     945                    ;*   Local Frame Size  : 0 Args + 52 Auto + 8 Save = 60 byte                 *
     946                    ;*****************************************************************************
     947 0000017c           UARTprintf:
     948                    ;* --------------------------------------------------------------------------*
     949                            .dwcfi  cfa_offset, 0
     950 0000017c B40F              PUSH      {A1, A2, A3, A4}      ; [DPU_3_PIPE]  ; [ORIG 16-BIT INS]
     951                            .dwcfi  cfa_offset, 16
     952                            .dwcfi  save_reg_to_mem, 3, -4
     953                            .dwcfi  save_reg_to_mem, 2, -8
     954                            .dwcfi  save_reg_to_mem, 1, -12
     955                            .dwcfi  save_reg_to_mem, 0, -16
     956 0000017e B580              PUSH      {V4, LR}              ; [DPU_3_PIPE]  ; [ORIG 16-BIT INS]
     957                            .dwcfi  cfa_offset, 24
     958                            .dwcfi  save_reg_to_mem, 14, -20
     959                            .dwcfi  save_reg_to_mem, 7, -24
     960 00000180 AF02              ADD       V4, SP, #8            ; [DPU_3_PIPE]  ; [ORIG 16-BIT INS]
     961 00000182 0D38F1AD          SUB       SP, SP, #56           ; [DPU_3_PIPE]  ; [KEEP 32-BIT INS]
     962                            .dwcfi  cfa_offset, 80
     963                    $C$DW$66        .dwtag  DW_TAG_variable
     964                            .dwattr $C$DW$66, DW_AT_name("ulIdx")
     965                            .dwattr $C$DW$66, DW_AT_TI_symbol_name("ulIdx")
     966                            .dwattr $C$DW$66, DW_AT_type(*$C$DW$T$13)
     967                            .dwattr $C$DW$66, DW_AT_location[DW_OP_breg13 0]
     968                    
     969                    $C$DW$67        .dwtag  DW_TAG_variable
     970                            .dwattr $C$DW$67, DW_AT_name("ulValue")
     971                            .dwattr $C$DW$67, DW_AT_TI_symbol_name("ulValue")
     972                            .dwattr $C$DW$67, DW_AT_type(*$C$DW$T$13)
     973                            .dwattr $C$DW$67, DW_AT_location[DW_OP_breg13 4]
     974                    
     975                    $C$DW$68        .dwtag  DW_TAG_variable
     976                            .dwattr $C$DW$68, DW_AT_name("ulPos")
     977                            .dwattr $C$DW$68, DW_AT_TI_symbol_name("ulPos")
     978                            .dwattr $C$DW$68, DW_AT_type(*$C$DW$T$13)
     979                            .dwattr $C$DW$68, DW_AT_location[DW_OP_breg13 8]
     980                    
     981                    $C$DW$69        .dwtag  DW_TAG_variable
     982                            .dwattr $C$DW$69, DW_AT_name("ulCount")
     983                            .dwattr $C$DW$69, DW_AT_TI_symbol_name("ulCount")
     984                            .dwattr $C$DW$69, DW_AT_type(*$C$DW$T$13)
     985                            .dwattr $C$DW$69, DW_AT_location[DW_OP_breg13 12]
TI ARM Assembler PC v15.12.1 Tue Sep 13 14:05:54 2016

Tools Copyright (c) 1996-2015 Texas Instruments Incorporated
uartstdio.asm                                                        PAGE   19

     986                    
     987                    $C$DW$70        .dwtag  DW_TAG_variable
     988                            .dwattr $C$DW$70, DW_AT_name("ulBase")
     989                            .dwattr $C$DW$70, DW_AT_TI_symbol_name("ulBase")
     990                            .dwattr $C$DW$70, DW_AT_type(*$C$DW$T$13)
     991                            .dwattr $C$DW$70, DW_AT_location[DW_OP_breg13 16]
     992                    
     993                    $C$DW$71        .dwtag  DW_TAG_variable
     994                            .dwattr $C$DW$71, DW_AT_name("ulNeg")
     995                            .dwattr $C$DW$71, DW_AT_TI_symbol_name("ulNeg")
     996                            .dwattr $C$DW$71, DW_AT_type(*$C$DW$T$13)
     997                            .dwattr $C$DW$71, DW_AT_location[DW_OP_breg13 20]
     998                    
     999                    $C$DW$72        .dwtag  DW_TAG_variable
    1000                            .dwattr $C$DW$72, DW_AT_name("pcStr")
    1001                            .dwattr $C$DW$72, DW_AT_TI_symbol_name("pcStr")
    1002                            .dwattr $C$DW$72, DW_AT_type(*$C$DW$T$38)
    1003                            .dwattr $C$DW$72, DW_AT_location[DW_OP_breg13 24]
    1004                    
    1005                    $C$DW$73        .dwtag  DW_TAG_variable
    1006                            .dwattr $C$DW$73, DW_AT_name("pcBuf")
    1007                            .dwattr $C$DW$73, DW_AT_TI_symbol_name("pcBuf")
    1008                            .dwattr $C$DW$73, DW_AT_type(*$C$DW$T$55)
    1009                            .dwattr $C$DW$73, DW_AT_location[DW_OP_breg13 28]
    1010                    
    1011                    $C$DW$74        .dwtag  DW_TAG_variable
    1012                            .dwattr $C$DW$74, DW_AT_name("cFill")
    1013                            .dwattr $C$DW$74, DW_AT_TI_symbol_name("cFill")
    1014                            .dwattr $C$DW$74, DW_AT_type(*$C$DW$T$6)
    1015                            .dwattr $C$DW$74, DW_AT_location[DW_OP_breg13 44]
    1016                    
    1017                    $C$DW$75        .dwtag  DW_TAG_variable
    1018                            .dwattr $C$DW$75, DW_AT_name("vaArgP")
    1019                            .dwattr $C$DW$75, DW_AT_TI_symbol_name("vaArgP")
    1020                            .dwattr $C$DW$75, DW_AT_type(*$C$DW$T$62)
    1021                            .dwattr $C$DW$75, DW_AT_location[DW_OP_breg13 48]
    1022                    
    1023                    $C$DW$76        .dwtag  DW_TAG_label
    1024                            .dwattr $C$DW$76, DW_AT_name("again")
    1025                            .dwattr $C$DW$76, DW_AT_low_pc(||$C$L15||)
    1026                            .dwattr $C$DW$76, DW_AT_TI_symbol_name("again")
    1027                    
    1028                    $C$DW$77        .dwtag  DW_TAG_label
    1029                            .dwattr $C$DW$77, DW_AT_name("convert")
    1030                            .dwattr $C$DW$77, DW_AT_low_pc(||$C$L28||)
    1031                            .dwattr $C$DW$77, DW_AT_TI_symbol_name("convert")
    1032                    
    1033                            .dwpsn  file "../Drivers/uartstdio.c",line 907,column 5,is_stmt,isa 1
    1034 00000186 0003F027          BIC       A1, V4, #3            ; [DPU_3_PIPE] |907|  ; [KEEP 32-BIT INS]
    1035 0000018a 1D00              ADDS      A1, A1, #4            ; [DPU_3_PIPE] |907|  ; [ORIG 16-BIT INS]
    1036 0000018c 900C              STR       A1, [SP, #48]         ; [DPU_3_PIPE] |907|  ; [ORIG 16-BIT INS]
    1037                            .dwpsn  file "../Drivers/uartstdio.c",line 912,column 5,is_stmt,isa 1
    1038 0000018e E169              B         ||$C$L44||            ; [DPU_3_PIPE] |912|  ; [ORIG 16-BIT INS]
    1039                            ; BRANCH OCCURS {||$C$L44||}     ; [] |912| 
    1040                    ;* --------------------------------------------------------------------------*
TI ARM Assembler PC v15.12.1 Tue Sep 13 14:05:54 2016

Tools Copyright (c) 1996-2015 Texas Instruments Incorporated
uartstdio.asm                                                        PAGE   20

    1041 00000190           ||$C$L11||:    
    1042                            .dwpsn  file "../Drivers/uartstdio.c",line 917,column 13,is_stmt,isa 1
    1043 00000190 2000              MOVS      A1, #0                ; [DPU_3_PIPE] |917|  ; [ORIG 16-BIT INS]
    1044 00000192 9000              STR       A1, [SP, #0]          ; [DPU_3_PIPE] |917|  ; [ORIG 16-BIT INS]
    1045 00000194 E002              B         ||$C$L13||            ; [DPU_3_PIPE] |917|  ; [ORIG 16-BIT INS]
    1046                            ; BRANCH OCCURS {||$C$L13||}     ; [] |917| 
    1047                    ;* --------------------------------------------------------------------------*
    1048 00000196           ||$C$L12||:    
    1049                            .dwpsn  file "../Drivers/uartstdio.c",line 918,column 13,is_stmt,isa 1
    1050 00000196 9800              LDR       A1, [SP, #0]          ; [DPU_3_PIPE] |918|  ; [ORIG 16-BIT INS]
    1051 00000198 1C40              ADDS      A1, A1, #1            ; [DPU_3_PIPE] |918|  ; [ORIG 16-BIT INS]
    1052 0000019a 9000              STR       A1, [SP, #0]          ; [DPU_3_PIPE] |918|  ; [ORIG 16-BIT INS]
    1053                    ;* --------------------------------------------------------------------------*
    1054                    ;*   BEGIN LOOP ||$C$L13||
    1055                    ;* --------------------------------------------------------------------------*
    1056 0000019c           ||$C$L13||:    
    1057                            .dwpsn  file "../Drivers/uartstdio.c",line 917,column 24,is_stmt,isa 1
    1058 0000019c 6838              LDR       A1, [V4, #0]          ; [DPU_3_PIPE] |917|  ; [ORIG 16-BIT INS]
    1059 0000019e 9900              LDR       A2, [SP, #0]          ; [DPU_3_PIPE] |917|  ; [ORIG 16-BIT INS]
    1060 000001a0 5C08              LDRB      A1, [A2, +A1]         ; [DPU_3_PIPE] |917|  ; [ORIG 16-BIT INS]
    1061 000001a2 2825              CMP       A1, #37               ; [DPU_3_PIPE] |917|  ; [ORIG 16-BIT INS]
    1062 000001a4 D004              BEQ       ||$C$L14||            ; [DPU_3_PIPE] |917|  ; [ORIG 16-BIT INS]
    1063                            ; BRANCHCC OCCURS {||$C$L14||}   ; [] |917| 
    1064                    ;* --------------------------------------------------------------------------*
    1065 000001a6 6838              LDR       A1, [V4, #0]          ; [DPU_3_PIPE] |917|  ; [ORIG 16-BIT INS]
    1066 000001a8 9900              LDR       A2, [SP, #0]          ; [DPU_3_PIPE] |917|  ; [ORIG 16-BIT INS]
    1067 000001aa 5C08              LDRB      A1, [A2, +A1]         ; [DPU_3_PIPE] |917|  ; [ORIG 16-BIT INS]
    1068 000001ac 2800              CMP       A1, #0                ; [DPU_3_PIPE] |917|  ; [ORIG 16-BIT INS]
    1069 000001ae D1F2              BNE       ||$C$L12||            ; [DPU_3_PIPE] |917|  ; [ORIG 16-BIT INS]
    1070                            ; BRANCHCC OCCURS {||$C$L12||}   ; [] |917| 
    1071                    ;* --------------------------------------------------------------------------*
    1072 000001b0           ||$C$L14||:    
    1073                            .dwpsn  file "../Drivers/uartstdio.c",line 925,column 9,is_stmt,isa 1
    1074 000001b0 6838              LDR       A1, [V4, #0]          ; [DPU_3_PIPE] |925|  ; [ORIG 16-BIT INS]
    1075 000001b2 9900              LDR       A2, [SP, #0]          ; [DPU_3_PIPE] |925|  ; [ORIG 16-BIT INS]
    1076                    $C$DW$78        .dwtag  DW_TAG_TI_branch
    1077                            .dwattr $C$DW$78, DW_AT_low_pc(0x00)
    1078                            .dwattr $C$DW$78, DW_AT_name("UARTwrite")
    1079                            .dwattr $C$DW$78, DW_AT_TI_call
    1080                    
    1081 000001b4 FF50F7FF          BL        UARTwrite             ; [DPU_3_PIPE] |925|  ; [KEEP 32-BIT INS]
    1082                            ; CALL OCCURS {UARTwrite }       ; [] |925| 
    1083                            .dwpsn  file "../Drivers/uartstdio.c",line 930,column 9,is_stmt,isa 1
    1084 000001b8 6839              LDR       A2, [V4, #0]          ; [DPU_3_PIPE] |930|  ; [ORIG 16-BIT INS]
    1085 000001ba 9800              LDR       A1, [SP, #0]          ; [DPU_3_PIPE] |930|  ; [ORIG 16-BIT INS]
    1086 000001bc 1840              ADDS      A1, A1, A2            ; [DPU_3_PIPE] |930|  ; [ORIG 16-BIT INS]
    1087 000001be 6038              STR       A1, [V4, #0]          ; [DPU_3_PIPE] |930|  ; [ORIG 16-BIT INS]
    1088                            .dwpsn  file "../Drivers/uartstdio.c",line 935,column 9,is_stmt,isa 1
    1089 000001c0 6838              LDR       A1, [V4, #0]          ; [DPU_3_PIPE] |935|  ; [ORIG 16-BIT INS]
    1090 000001c2 7800              LDRB      A1, [A1, #0]          ; [DPU_3_PIPE] |935|  ; [ORIG 16-BIT INS]
    1091 000001c4 2825              CMP       A1, #37               ; [DPU_3_PIPE] |935|  ; [ORIG 16-BIT INS]
    1092 000001c6 814DF040          BNE       ||$C$L44||            ; [DPU_3_PIPE] |935|  ; [KEEP 32-BIT INS]
    1093                            ; BRANCHCC OCCURS {||$C$L44||}   ; [] |935| 
    1094                    ;* --------------------------------------------------------------------------*
    1095                            .dwpsn  file "../Drivers/uartstdio.c",line 940,column 13,is_stmt,isa 1
TI ARM Assembler PC v15.12.1 Tue Sep 13 14:05:54 2016

Tools Copyright (c) 1996-2015 Texas Instruments Incorporated
uartstdio.asm                                                        PAGE   21

    1096 000001ca 6838              LDR       A1, [V4, #0]          ; [DPU_3_PIPE] |940|  ; [ORIG 16-BIT INS]
    1097 000001cc 1C40              ADDS      A1, A1, #1            ; [DPU_3_PIPE] |940|  ; [ORIG 16-BIT INS]
    1098 000001ce 6038              STR       A1, [V4, #0]          ; [DPU_3_PIPE] |940|  ; [ORIG 16-BIT INS]
    1099                            .dwpsn  file "../Drivers/uartstdio.c",line 946,column 13,is_stmt,isa 1
    1100 000001d0 2000              MOVS      A1, #0                ; [DPU_3_PIPE] |946|  ; [ORIG 16-BIT INS]
    1101 000001d2 9003              STR       A1, [SP, #12]         ; [DPU_3_PIPE] |946|  ; [ORIG 16-BIT INS]
    1102                            .dwpsn  file "../Drivers/uartstdio.c",line 947,column 13,is_stmt,isa 1
    1103 000001d4 2020              MOVS      A1, #32               ; [DPU_3_PIPE] |947|  ; [ORIG 16-BIT INS]
    1104 000001d6 002CF88D          STRB      A1, [SP, #44]         ; [DPU_3_PIPE] |947|  ; [KEEP 32-BIT INS]
    1105                    ;* --------------------------------------------------------------------------*
    1106 000001da           ||$C$L15||:    
    1107                            .dwpsn  file "../Drivers/uartstdio.c",line 959,column 13,is_stmt,isa 1
    1108 000001da E108              B         ||$C$L41||            ; [DPU_3_PIPE] |959|  ; [ORIG 16-BIT INS]
    1109                            ; BRANCH OCCURS {||$C$L41||}     ; [] |959| 
    1110                    ;* --------------------------------------------------------------------------*
    1111 000001dc           ||$C$L16||:    
    1112                            .dwpsn  file "../Drivers/uartstdio.c",line 979,column 21,is_stmt,isa 1
    1113 000001dc 6838              LDR       A1, [V4, #0]          ; [DPU_3_PIPE] |979|  ; [ORIG 16-BIT INS]
    1114 000001de 0C01F810          LDRB      A1, [A1, #-1]         ; [DPU_3_PIPE] |979|  ; [KEEP 32-BIT INS]
    1115 000001e2 2830              CMP       A1, #48               ; [DPU_3_PIPE] |979|  ; [ORIG 16-BIT INS]
    1116 000001e4 D104              BNE       ||$C$L17||            ; [DPU_3_PIPE] |979|  ; [ORIG 16-BIT INS]
    1117                            ; BRANCHCC OCCURS {||$C$L17||}   ; [] |979| 
    1118                    ;* --------------------------------------------------------------------------*
    1119 000001e6 9803              LDR       A1, [SP, #12]         ; [DPU_3_PIPE] |979|  ; [ORIG 16-BIT INS]
    1120 000001e8 B910              CBNZ      A1, ||$C$L17||        ; []  ; [ORIG 16-BIT INS]
    1121                            ; BRANCHCC OCCURS {||$C$L17||}   ; [] |979| 
    1122                    ;* --------------------------------------------------------------------------*
    1123                            .dwpsn  file "../Drivers/uartstdio.c",line 981,column 25,is_stmt,isa 1
    1124 000001ea 2030              MOVS      A1, #48               ; [DPU_3_PIPE] |981|  ; [ORIG 16-BIT INS]
    1125 000001ec 002CF88D          STRB      A1, [SP, #44]         ; [DPU_3_PIPE] |981|  ; [KEEP 32-BIT INS]
    1126                    ;* --------------------------------------------------------------------------*
    1127 000001f0           ||$C$L17||:    
    1128                            .dwpsn  file "../Drivers/uartstdio.c",line 987,column 21,is_stmt,isa 1
    1129 000001f0 9903              LDR       A2, [SP, #12]         ; [DPU_3_PIPE] |987|  ; [ORIG 16-BIT INS]
    1130 000001f2 0048              LSLS      A1, A2, #1            ; [DPU_3_PIPE] |987|  ; [ORIG 16-BIT INS]
    1131 000001f4 00C1EB00          ADD       A1, A1, A2, LSL #3    ; [DPU_3_PIPE] |987|  ; [KEEP 32-BIT INS]
    1132 000001f8 9003              STR       A1, [SP, #12]         ; [DPU_3_PIPE] |987|  ; [ORIG 16-BIT INS]
    1133                            .dwpsn  file "../Drivers/uartstdio.c",line 988,column 21,is_stmt,isa 1
    1134 000001fa 6838              LDR       A1, [V4, #0]          ; [DPU_3_PIPE] |988|  ; [ORIG 16-BIT INS]
    1135 000001fc 9903              LDR       A2, [SP, #12]         ; [DPU_3_PIPE] |988|  ; [ORIG 16-BIT INS]
    1136 000001fe 0C01F810          LDRB      A1, [A1, #-1]         ; [DPU_3_PIPE] |988|  ; [KEEP 32-BIT INS]
    1137 00000202 3830              SUBS      A1, A1, #48           ; [DPU_3_PIPE] |988|  ; [ORIG 16-BIT INS]
    1138 00000204 1809              ADDS      A2, A2, A1            ; [DPU_3_PIPE] |988|  ; [ORIG 16-BIT INS]
    1139 00000206 9103              STR       A2, [SP, #12]         ; [DPU_3_PIPE] |988|  ; [ORIG 16-BIT INS]
    1140                            .dwpsn  file "../Drivers/uartstdio.c",line 993,column 21,is_stmt,isa 1
    1141 00000208 E0F1              B         ||$C$L41||            ; [DPU_3_PIPE] |993|  ; [ORIG 16-BIT INS]
    1142                            ; BRANCH OCCURS {||$C$L41||}     ; [] |993| 
    1143                    ;* --------------------------------------------------------------------------*
    1144 0000020a           ||$C$L18||:    
    1145                            .dwpsn  file "../Drivers/uartstdio.c",line 1004,column 21,is_stmt,isa 1
    1146 0000020a 980C              LDR       A1, [SP, #48]         ; [DPU_3_PIPE] |1004|  ; [ORIG 16-BIT INS]
    1147 0000020c 1CC0              ADDS      A1, A1, #3            ; [DPU_3_PIPE] |1004|  ; [ORIG 16-BIT INS]
    1148 0000020e 0003F020          BIC       A1, A1, #3            ; [DPU_3_PIPE] |1004|  ; [KEEP 32-BIT INS]
    1149 00000212 1D00              ADDS      A1, A1, #4            ; [DPU_3_PIPE] |1004|  ; [ORIG 16-BIT INS]
    1150 00000214 900C              STR       A1, [SP, #48]         ; [DPU_3_PIPE] |1004|  ; [ORIG 16-BIT INS]
TI ARM Assembler PC v15.12.1 Tue Sep 13 14:05:54 2016

Tools Copyright (c) 1996-2015 Texas Instruments Incorporated
uartstdio.asm                                                        PAGE   22

    1151 00000216 980C              LDR       A1, [SP, #48]         ; [DPU_3_PIPE] |1004|  ; [ORIG 16-BIT INS]
    1152 00000218 0C04F850          LDR       A1, [A1, #-4]         ; [DPU_3_PIPE] |1004|  ; [KEEP 32-BIT INS]
    1153 0000021c 9001              STR       A1, [SP, #4]          ; [DPU_3_PIPE] |1004|  ; [ORIG 16-BIT INS]
    1154                            .dwpsn  file "../Drivers/uartstdio.c",line 1009,column 21,is_stmt,isa 1
    1155 0000021e 2101              MOVS      A2, #1                ; [DPU_3_PIPE] |1009|  ; [ORIG 16-BIT INS]
    1156 00000220 A801              ADD       A1, SP, #4            ; [DPU_3_PIPE] |1009|  ; [ORIG 16-BIT INS]
    1157                    $C$DW$79        .dwtag  DW_TAG_TI_branch
    1158                            .dwattr $C$DW$79, DW_AT_low_pc(0x00)
    1159                            .dwattr $C$DW$79, DW_AT_name("UARTwrite")
    1160                            .dwattr $C$DW$79, DW_AT_TI_call
    1161                    
    1162 00000222 FF19F7FF          BL        UARTwrite             ; [DPU_3_PIPE] |1009|  ; [KEEP 32-BIT INS]
    1163                            ; CALL OCCURS {UARTwrite }       ; [] |1009| 
    1164                            .dwpsn  file "../Drivers/uartstdio.c",line 1014,column 21,is_stmt,isa 1
    1165 00000226 E11D              B         ||$C$L44||            ; [DPU_3_PIPE] |1014|  ; [ORIG 16-BIT INS]
    1166                            ; BRANCH OCCURS {||$C$L44||}     ; [] |1014| 
    1167                    ;* --------------------------------------------------------------------------*
    1168 00000228           ||$C$L19||:    
    1169                            .dwpsn  file "../Drivers/uartstdio.c",line 1025,column 21,is_stmt,isa 1
    1170 00000228 980C              LDR       A1, [SP, #48]         ; [DPU_3_PIPE] |1025|  ; [ORIG 16-BIT INS]
    1171 0000022a 1CC0              ADDS      A1, A1, #3            ; [DPU_3_PIPE] |1025|  ; [ORIG 16-BIT INS]
    1172 0000022c 0003F020          BIC       A1, A1, #3            ; [DPU_3_PIPE] |1025|  ; [KEEP 32-BIT INS]
    1173 00000230 1D00              ADDS      A1, A1, #4            ; [DPU_3_PIPE] |1025|  ; [ORIG 16-BIT INS]
    1174 00000232 900C              STR       A1, [SP, #48]         ; [DPU_3_PIPE] |1025|  ; [ORIG 16-BIT INS]
    1175 00000234 980C              LDR       A1, [SP, #48]         ; [DPU_3_PIPE] |1025|  ; [ORIG 16-BIT INS]
    1176 00000236 0C04F850          LDR       A1, [A1, #-4]         ; [DPU_3_PIPE] |1025|  ; [KEEP 32-BIT INS]
    1177 0000023a 9001              STR       A1, [SP, #4]          ; [DPU_3_PIPE] |1025|  ; [ORIG 16-BIT INS]
    1178                            .dwpsn  file "../Drivers/uartstdio.c",line 1030,column 21,is_stmt,isa 1
    1179 0000023c 2000              MOVS      A1, #0                ; [DPU_3_PIPE] |1030|  ; [ORIG 16-BIT INS]
    1180 0000023e 9002              STR       A1, [SP, #8]          ; [DPU_3_PIPE] |1030|  ; [ORIG 16-BIT INS]
    1181                            .dwpsn  file "../Drivers/uartstdio.c",line 1036,column 21,is_stmt,isa 1
    1182 00000240 9801              LDR       A1, [SP, #4]          ; [DPU_3_PIPE] |1036|  ; [ORIG 16-BIT INS]
    1183 00000242 2800              CMP       A1, #0                ; [DPU_3_PIPE] |1036|  ; [ORIG 16-BIT INS]
    1184 00000244 D505              BPL       ||$C$L20||            ; [DPU_3_PIPE] |1036|  ; [ORIG 16-BIT INS]
    1185                            ; BRANCHCC OCCURS {||$C$L20||}   ; [] |1036| 
    1186                    ;* --------------------------------------------------------------------------*
    1187                            .dwpsn  file "../Drivers/uartstdio.c",line 1041,column 25,is_stmt,isa 1
    1188 00000246 9801              LDR       A1, [SP, #4]          ; [DPU_3_PIPE] |1041|  ; [ORIG 16-BIT INS]
    1189 00000248 4240              RSBS      A1, A1, #0            ; [DPU_3_PIPE] |1041|  ; [ORIG 16-BIT INS]
    1190 0000024a 9001              STR       A1, [SP, #4]          ; [DPU_3_PIPE] |1041|  ; [ORIG 16-BIT INS]
    1191                            .dwpsn  file "../Drivers/uartstdio.c",line 1046,column 25,is_stmt,isa 1
    1192 0000024c 2001              MOVS      A1, #1                ; [DPU_3_PIPE] |1046|  ; [ORIG 16-BIT INS]
    1193 0000024e 9005              STR       A1, [SP, #20]         ; [DPU_3_PIPE] |1046|  ; [ORIG 16-BIT INS]
    1194                            .dwpsn  file "../Drivers/uartstdio.c",line 1047,column 21,is_stmt,isa 1
    1195 00000250 E001              B         ||$C$L21||            ; [DPU_3_PIPE] |1047|  ; [ORIG 16-BIT INS]
    1196                            ; BRANCH OCCURS {||$C$L21||}     ; [] |1047| 
    1197                    ;* --------------------------------------------------------------------------*
    1198 00000252           ||$C$L20||:    
    1199                            .dwpsn  file "../Drivers/uartstdio.c",line 1054,column 25,is_stmt,isa 1
    1200 00000252 2000              MOVS      A1, #0                ; [DPU_3_PIPE] |1054|  ; [ORIG 16-BIT INS]
    1201 00000254 9005              STR       A1, [SP, #20]         ; [DPU_3_PIPE] |1054|  ; [ORIG 16-BIT INS]
    1202                    ;* --------------------------------------------------------------------------*
    1203 00000256           ||$C$L21||:    
    1204                            .dwpsn  file "../Drivers/uartstdio.c",line 1060,column 21,is_stmt,isa 1
    1205 00000256 200A              MOVS      A1, #10               ; [DPU_3_PIPE] |1060|  ; [ORIG 16-BIT INS]
TI ARM Assembler PC v15.12.1 Tue Sep 13 14:05:54 2016

Tools Copyright (c) 1996-2015 Texas Instruments Incorporated
uartstdio.asm                                                        PAGE   23

    1206 00000258 9004              STR       A1, [SP, #16]         ; [DPU_3_PIPE] |1060|  ; [ORIG 16-BIT INS]
    1207                            .dwpsn  file "../Drivers/uartstdio.c",line 1065,column 21,is_stmt,isa 1
    1208 0000025a E053              B         ||$C$L28||            ; [DPU_3_PIPE] |1065|  ; [ORIG 16-BIT INS]
    1209                            ; BRANCH OCCURS {||$C$L28||}     ; [] |1065| 
    1210                    ;* --------------------------------------------------------------------------*
    1211 0000025c           ||$C$L22||:    
    1212                            .dwpsn  file "../Drivers/uartstdio.c",line 1076,column 21,is_stmt,isa 1
    1213 0000025c 980C              LDR       A1, [SP, #48]         ; [DPU_3_PIPE] |1076|  ; [ORIG 16-BIT INS]
    1214 0000025e 1CC0              ADDS      A1, A1, #3            ; [DPU_3_PIPE] |1076|  ; [ORIG 16-BIT INS]
    1215 00000260 0003F020          BIC       A1, A1, #3            ; [DPU_3_PIPE] |1076|  ; [KEEP 32-BIT INS]
    1216 00000264 1D00              ADDS      A1, A1, #4            ; [DPU_3_PIPE] |1076|  ; [ORIG 16-BIT INS]
    1217 00000266 900C              STR       A1, [SP, #48]         ; [DPU_3_PIPE] |1076|  ; [ORIG 16-BIT INS]
    1218 00000268 980C              LDR       A1, [SP, #48]         ; [DPU_3_PIPE] |1076|  ; [ORIG 16-BIT INS]
    1219 0000026a 0C04F850          LDR       A1, [A1, #-4]         ; [DPU_3_PIPE] |1076|  ; [KEEP 32-BIT INS]
    1220 0000026e 9006              STR       A1, [SP, #24]         ; [DPU_3_PIPE] |1076|  ; [ORIG 16-BIT INS]
    1221                            .dwpsn  file "../Drivers/uartstdio.c",line 1081,column 25,is_stmt,isa 1
    1222 00000270 2000              MOVS      A1, #0                ; [DPU_3_PIPE] |1081|  ; [ORIG 16-BIT INS]
    1223 00000272 9000              STR       A1, [SP, #0]          ; [DPU_3_PIPE] |1081|  ; [ORIG 16-BIT INS]
    1224 00000274 E002              B         ||$C$L24||            ; [DPU_3_PIPE] |1081|  ; [ORIG 16-BIT INS]
    1225                            ; BRANCH OCCURS {||$C$L24||}     ; [] |1081| 
    1226                    ;* --------------------------------------------------------------------------*
    1227 00000276           ||$C$L23||:    
    1228                            .dwpsn  file "../Drivers/uartstdio.c",line 1081,column 58,is_stmt,isa 1
    1229 00000276 9800              LDR       A1, [SP, #0]          ; [DPU_3_PIPE] |1081|  ; [ORIG 16-BIT INS]
    1230 00000278 1C40              ADDS      A1, A1, #1            ; [DPU_3_PIPE] |1081|  ; [ORIG 16-BIT INS]
    1231 0000027a 9000              STR       A1, [SP, #0]          ; [DPU_3_PIPE] |1081|  ; [ORIG 16-BIT INS]
    1232                    ;* --------------------------------------------------------------------------*
    1233                    ;*   BEGIN LOOP ||$C$L24||
    1234                    ;* --------------------------------------------------------------------------*
    1235 0000027c           ||$C$L24||:    
    1236                            .dwpsn  file "../Drivers/uartstdio.c",line 1081,column 36,is_stmt,isa 1
    1237 0000027c 9806              LDR       A1, [SP, #24]         ; [DPU_3_PIPE] |1081|  ; [ORIG 16-BIT INS]
    1238 0000027e 9900              LDR       A2, [SP, #0]          ; [DPU_3_PIPE] |1081|  ; [ORIG 16-BIT INS]
    1239 00000280 5C08              LDRB      A1, [A2, +A1]         ; [DPU_3_PIPE] |1081|  ; [ORIG 16-BIT INS]
    1240 00000282 2800              CMP       A1, #0                ; [DPU_3_PIPE] |1081|  ; [ORIG 16-BIT INS]
    1241 00000284 D1F7              BNE       ||$C$L23||            ; [DPU_3_PIPE] |1081|  ; [ORIG 16-BIT INS]
    1242                            ; BRANCHCC OCCURS {||$C$L23||}   ; [] |1081| 
    1243                    ;* --------------------------------------------------------------------------*
    1244                            .dwpsn  file "../Drivers/uartstdio.c",line 1088,column 21,is_stmt,isa 1
    1245 00000286 9806              LDR       A1, [SP, #24]         ; [DPU_3_PIPE] |1088|  ; [ORIG 16-BIT INS]
    1246 00000288 9900              LDR       A2, [SP, #0]          ; [DPU_3_PIPE] |1088|  ; [ORIG 16-BIT INS]
    1247                    $C$DW$80        .dwtag  DW_TAG_TI_branch
    1248                            .dwattr $C$DW$80, DW_AT_low_pc(0x00)
    1249                            .dwattr $C$DW$80, DW_AT_name("UARTwrite")
    1250                            .dwattr $C$DW$80, DW_AT_TI_call
    1251                    
    1252 0000028a FEE5F7FF          BL        UARTwrite             ; [DPU_3_PIPE] |1088|  ; [KEEP 32-BIT INS]
    1253                            ; CALL OCCURS {UARTwrite }       ; [] |1088| 
    1254                            .dwpsn  file "../Drivers/uartstdio.c",line 1093,column 21,is_stmt,isa 1
    1255 0000028e 9800              LDR       A1, [SP, #0]          ; [DPU_3_PIPE] |1093|  ; [ORIG 16-BIT INS]
    1256 00000290 9903              LDR       A2, [SP, #12]         ; [DPU_3_PIPE] |1093|  ; [ORIG 16-BIT INS]
    1257 00000292 4288              CMP       A1, A2                ; [DPU_3_PIPE] |1093|  ; [ORIG 16-BIT INS]
    1258 00000294 80E6F080          BCS       ||$C$L44||            ; [DPU_3_PIPE] |1093|  ; [KEEP 32-BIT INS]
    1259                            ; BRANCHCC OCCURS {||$C$L44||}   ; [] |1093| 
    1260                    ;* --------------------------------------------------------------------------*
TI ARM Assembler PC v15.12.1 Tue Sep 13 14:05:54 2016

Tools Copyright (c) 1996-2015 Texas Instruments Incorporated
uartstdio.asm                                                        PAGE   24

    1261                            .dwpsn  file "../Drivers/uartstdio.c",line 1095,column 25,is_stmt,isa 1
    1262 00000298 9900              LDR       A2, [SP, #0]          ; [DPU_3_PIPE] |1095|  ; [ORIG 16-BIT INS]
    1263 0000029a 9803              LDR       A1, [SP, #12]         ; [DPU_3_PIPE] |1095|  ; [ORIG 16-BIT INS]
    1264 0000029c 1A40              SUBS      A1, A1, A2            ; [DPU_3_PIPE] |1095|  ; [ORIG 16-BIT INS]
    1265 0000029e 9003              STR       A1, [SP, #12]         ; [DPU_3_PIPE] |1095|  ; [ORIG 16-BIT INS]
    1266                            .dwpsn  file "../Drivers/uartstdio.c",line 1096,column 25,is_stmt,isa 1
    1267 000002a0 9803              LDR       A1, [SP, #12]         ; [DPU_3_PIPE] |1096|  ; [ORIG 16-BIT INS]
    1268 000002a2 2800              CMP       A1, #0                ; [DPU_3_PIPE] |1096|  ; [ORIG 16-BIT INS]
    1269 000002a4 0101F1A0          SUB       A2, A1, #1            ; [DPU_3_PIPE] |1096|  ; [KEEP 32-BIT INS]
    1270 000002a8 9103              STR       A2, [SP, #12]         ; [DPU_3_PIPE] |1096|  ; [ORIG 16-BIT INS]
    1271 000002aa 80DBF000          BEQ       ||$C$L44||            ; [DPU_3_PIPE] |1096|  ; [KEEP 32-BIT INS]
    1272                            ; BRANCHCC OCCURS {||$C$L44||}   ; [] |1096| 
    1273                    ;* --------------------------------------------------------------------------*
    1274                    ;*   BEGIN LOOP ||$C$L25||
    1275                    ;*
    1276                    ;*   Loop source line                : 1096
    1277                    ;*   Loop closing brace source line  : 1099
    1278                    ;*   Known Minimum Trip Count        : 1
    1279                    ;*   Known Maximum Trip Count        : 4294967295
    1280                    ;*   Known Max Trip Count Factor     : 1
    1281                    ;* --------------------------------------------------------------------------*
    1282 000002ae           ||$C$L25||:    
    1283                            .dwpsn  file "../Drivers/uartstdio.c",line 1098,column 29,is_stmt,isa 1
    1284 000002ae A072              ADR       A1, $C$SL4            ; [DPU_3_PIPE] |1098|  ; [ORIG 16-BIT INS]
    1285 000002b0 2101              MOVS      A2, #1                ; [DPU_3_PIPE] |1098|  ; [ORIG 16-BIT INS]
    1286                    $C$DW$81        .dwtag  DW_TAG_TI_branch
    1287                            .dwattr $C$DW$81, DW_AT_low_pc(0x00)
    1288                            .dwattr $C$DW$81, DW_AT_name("UARTwrite")
    1289                            .dwattr $C$DW$81, DW_AT_TI_call
    1290                    
    1291 000002b2 FED1F7FF          BL        UARTwrite             ; [DPU_3_PIPE] |1098|  ; [KEEP 32-BIT INS]
    1292                            ; CALL OCCURS {UARTwrite }       ; [] |1098| 
    1293                            .dwpsn  file "../Drivers/uartstdio.c",line 1096,column 25,is_stmt,isa 1
    1294 000002b6 9803              LDR       A1, [SP, #12]         ; [DPU_3_PIPE] |1096|  ; [ORIG 16-BIT INS]
    1295 000002b8 1E41              SUBS      A2, A1, #1            ; [DPU_3_PIPE] |1096|  ; [ORIG 16-BIT INS]
    1296 000002ba 2800              CMP       A1, #0                ; [DPU_3_PIPE] |1096|  ; [ORIG 16-BIT INS]
    1297 000002bc 9103              STR       A2, [SP, #12]         ; [DPU_3_PIPE] |1096|  ; [ORIG 16-BIT INS]
    1298 000002be D1F6              BNE       ||$C$L25||            ; [DPU_3_PIPE] |1096|  ; [ORIG 16-BIT INS]
    1299                            ; BRANCHCC OCCURS {||$C$L25||}   ; [] |1096| 
    1300                    ;* --------------------------------------------------------------------------*
    1301                            .dwpsn  file "../Drivers/uartstdio.c",line 1104,column 21,is_stmt,isa 1
    1302 000002c0 E0D0              B         ||$C$L44||            ; [DPU_3_PIPE] |1104|  ; [ORIG 16-BIT INS]
    1303                            ; BRANCH OCCURS {||$C$L44||}     ; [] |1104| 
    1304                    ;* --------------------------------------------------------------------------*
    1305 000002c2           ||$C$L26||:    
    1306                            .dwpsn  file "../Drivers/uartstdio.c",line 1115,column 21,is_stmt,isa 1
    1307 000002c2 980C              LDR       A1, [SP, #48]         ; [DPU_3_PIPE] |1115|  ; [ORIG 16-BIT INS]
    1308 000002c4 1CC0              ADDS      A1, A1, #3            ; [DPU_3_PIPE] |1115|  ; [ORIG 16-BIT INS]
    1309 000002c6 0003F020          BIC       A1, A1, #3            ; [DPU_3_PIPE] |1115|  ; [KEEP 32-BIT INS]
    1310 000002ca 1D00              ADDS      A1, A1, #4            ; [DPU_3_PIPE] |1115|  ; [ORIG 16-BIT INS]
    1311 000002cc 900C              STR       A1, [SP, #48]         ; [DPU_3_PIPE] |1115|  ; [ORIG 16-BIT INS]
    1312 000002ce 980C              LDR       A1, [SP, #48]         ; [DPU_3_PIPE] |1115|  ; [ORIG 16-BIT INS]
    1313 000002d0 0C04F850          LDR       A1, [A1, #-4]         ; [DPU_3_PIPE] |1115|  ; [KEEP 32-BIT INS]
    1314 000002d4 9001              STR       A1, [SP, #4]          ; [DPU_3_PIPE] |1115|  ; [ORIG 16-BIT INS]
    1315                            .dwpsn  file "../Drivers/uartstdio.c",line 1120,column 21,is_stmt,isa 1
TI ARM Assembler PC v15.12.1 Tue Sep 13 14:05:54 2016

Tools Copyright (c) 1996-2015 Texas Instruments Incorporated
uartstdio.asm                                                        PAGE   25

    1316 000002d6 2000              MOVS      A1, #0                ; [DPU_3_PIPE] |1120|  ; [ORIG 16-BIT INS]
    1317 000002d8 9002              STR       A1, [SP, #8]          ; [DPU_3_PIPE] |1120|  ; [ORIG 16-BIT INS]
    1318                            .dwpsn  file "../Drivers/uartstdio.c",line 1125,column 21,is_stmt,isa 1
    1319 000002da 200A              MOVS      A1, #10               ; [DPU_3_PIPE] |1125|  ; [ORIG 16-BIT INS]
    1320 000002dc 9004              STR       A1, [SP, #16]         ; [DPU_3_PIPE] |1125|  ; [ORIG 16-BIT INS]
    1321                            .dwpsn  file "../Drivers/uartstdio.c",line 1131,column 21,is_stmt,isa 1
    1322 000002de 2000              MOVS      A1, #0                ; [DPU_3_PIPE] |1131|  ; [ORIG 16-BIT INS]
    1323 000002e0 9005              STR       A1, [SP, #20]         ; [DPU_3_PIPE] |1131|  ; [ORIG 16-BIT INS]
    1324                            .dwpsn  file "../Drivers/uartstdio.c",line 1136,column 21,is_stmt,isa 1
    1325 000002e2 E00F              B         ||$C$L28||            ; [DPU_3_PIPE] |1136|  ; [ORIG 16-BIT INS]
    1326                            ; BRANCH OCCURS {||$C$L28||}     ; [] |1136| 
    1327                    ;* --------------------------------------------------------------------------*
    1328 000002e4           ||$C$L27||:    
    1329                            .dwpsn  file "../Drivers/uartstdio.c",line 1152,column 21,is_stmt,isa 1
    1330 000002e4 980C              LDR       A1, [SP, #48]         ; [DPU_3_PIPE] |1152|  ; [ORIG 16-BIT INS]
    1331 000002e6 1CC0              ADDS      A1, A1, #3            ; [DPU_3_PIPE] |1152|  ; [ORIG 16-BIT INS]
    1332 000002e8 0003F020          BIC       A1, A1, #3            ; [DPU_3_PIPE] |1152|  ; [KEEP 32-BIT INS]
    1333 000002ec 1D00              ADDS      A1, A1, #4            ; [DPU_3_PIPE] |1152|  ; [ORIG 16-BIT INS]
    1334 000002ee 900C              STR       A1, [SP, #48]         ; [DPU_3_PIPE] |1152|  ; [ORIG 16-BIT INS]
    1335 000002f0 980C              LDR       A1, [SP, #48]         ; [DPU_3_PIPE] |1152|  ; [ORIG 16-BIT INS]
    1336 000002f2 0C04F850          LDR       A1, [A1, #-4]         ; [DPU_3_PIPE] |1152|  ; [KEEP 32-BIT INS]
    1337 000002f6 9001              STR       A1, [SP, #4]          ; [DPU_3_PIPE] |1152|  ; [ORIG 16-BIT INS]
    1338                            .dwpsn  file "../Drivers/uartstdio.c",line 1157,column 21,is_stmt,isa 1
    1339 000002f8 2000              MOVS      A1, #0                ; [DPU_3_PIPE] |1157|  ; [ORIG 16-BIT INS]
    1340 000002fa 9002              STR       A1, [SP, #8]          ; [DPU_3_PIPE] |1157|  ; [ORIG 16-BIT INS]
    1341                            .dwpsn  file "../Drivers/uartstdio.c",line 1162,column 21,is_stmt,isa 1
    1342 000002fc 2010              MOVS      A1, #16               ; [DPU_3_PIPE] |1162|  ; [ORIG 16-BIT INS]
    1343 000002fe 9004              STR       A1, [SP, #16]         ; [DPU_3_PIPE] |1162|  ; [ORIG 16-BIT INS]
    1344                            .dwpsn  file "../Drivers/uartstdio.c",line 1168,column 21,is_stmt,isa 1
    1345 00000300 2000              MOVS      A1, #0                ; [DPU_3_PIPE] |1168|  ; [ORIG 16-BIT INS]
    1346 00000302 9005              STR       A1, [SP, #20]         ; [DPU_3_PIPE] |1168|  ; [ORIG 16-BIT INS]
    1347                    ;* --------------------------------------------------------------------------*
    1348 00000304           ||$C$L28||:    
    1349                            .dwpsn  file "../Drivers/uartstdio.c",line 1175,column 25,is_stmt,isa 1
    1350 00000304 2001              MOVS      A1, #1                ; [DPU_3_PIPE] |1175|  ; [ORIG 16-BIT INS]
    1351 00000306 9000              STR       A1, [SP, #0]          ; [DPU_3_PIPE] |1175|  ; [ORIG 16-BIT INS]
    1352 00000308 E006              B         ||$C$L30||            ; [DPU_3_PIPE] |1175|  ; [ORIG 16-BIT INS]
    1353                            ; BRANCH OCCURS {||$C$L30||}     ; [] |1175| 
    1354                    ;* --------------------------------------------------------------------------*
    1355 0000030a           ||$C$L29||:    
    1356                            .dwpsn  file "../Drivers/uartstdio.c",line 1178,column 25,is_stmt,isa 1
    1357 0000030a 9803              LDR       A1, [SP, #12]         ; [DPU_3_PIPE] |1178|  ; [ORIG 16-BIT INS]
    1358 0000030c 9A00              LDR       A3, [SP, #0]          ; [DPU_3_PIPE] |1178|  ; [ORIG 16-BIT INS]
    1359 0000030e 9904              LDR       A2, [SP, #16]         ; [DPU_3_PIPE] |1178|  ; [ORIG 16-BIT INS]
    1360 00000310 1E40              SUBS      A1, A1, #1            ; [DPU_3_PIPE] |1178|  ; [ORIG 16-BIT INS]
    1361 00000312 9003              STR       A1, [SP, #12]         ; [DPU_3_PIPE] |1178|  ; [ORIG 16-BIT INS]
    1362 00000314 4351              MULS      A2, A2, A3            ; [DPU_3_PIPE] |1178|  ; [ORIG 16-BIT INS]
    1363 00000316 9100              STR       A2, [SP, #0]          ; [DPU_3_PIPE] |1178|  ; [ORIG 16-BIT INS]
    1364                    ;* --------------------------------------------------------------------------*
    1365                    ;*   BEGIN LOOP ||$C$L30||
    1366                    ;* --------------------------------------------------------------------------*
    1367 00000318           ||$C$L30||:    
    1368                            .dwpsn  file "../Drivers/uartstdio.c",line 1176,column 26,is_stmt,isa 1
    1369 00000318 9A00              LDR       A3, [SP, #0]          ; [DPU_3_PIPE] |1176|  ; [ORIG 16-BIT INS]
    1370 0000031a 9804              LDR       A1, [SP, #16]         ; [DPU_3_PIPE] |1176|  ; [ORIG 16-BIT INS]
TI ARM Assembler PC v15.12.1 Tue Sep 13 14:05:54 2016

Tools Copyright (c) 1996-2015 Texas Instruments Incorporated
uartstdio.asm                                                        PAGE   26

    1371 0000031c 9901              LDR       A2, [SP, #4]          ; [DPU_3_PIPE] |1176|  ; [ORIG 16-BIT INS]
    1372 0000031e 4350              MULS      A1, A1, A3            ; [DPU_3_PIPE] |1176|  ; [ORIG 16-BIT INS]
    1373 00000320 4281              CMP       A2, A1                ; [DPU_3_PIPE] |1176|  ; [ORIG 16-BIT INS]
    1374 00000322 D308              BCC       ||$C$L31||            ; [DPU_3_PIPE] |1176|  ; [ORIG 16-BIT INS]
    1375                            ; BRANCHCC OCCURS {||$C$L31||}   ; [] |1176| 
    1376                    ;* --------------------------------------------------------------------------*
    1377 00000324 9A00              LDR       A3, [SP, #0]          ; [DPU_3_PIPE] |1176|  ; [ORIG 16-BIT INS]
    1378 00000326 9804              LDR       A1, [SP, #16]         ; [DPU_3_PIPE] |1176|  ; [ORIG 16-BIT INS]
    1379 00000328 9B04              LDR       A4, [SP, #16]         ; [DPU_3_PIPE] |1176|  ; [ORIG 16-BIT INS]
    1380 0000032a 9900              LDR       A2, [SP, #0]          ; [DPU_3_PIPE] |1176|  ; [ORIG 16-BIT INS]
    1381 0000032c 4350              MULS      A1, A1, A3            ; [DPU_3_PIPE] |1176|  ; [ORIG 16-BIT INS]
    1382 0000032e F0F3FBB0          UDIV      A1, A1, A4            ; [DPU_3_PIPE] |1176|  ; [KEEP 32-BIT INS]
    1383 00000332 4281              CMP       A2, A1                ; [DPU_3_PIPE] |1176|  ; [ORIG 16-BIT INS]
    1384 00000334 D0E9              BEQ       ||$C$L29||            ; [DPU_3_PIPE] |1176|  ; [ORIG 16-BIT INS]
    1385                            ; BRANCHCC OCCURS {||$C$L29||}   ; [] |1176| 
    1386                    ;* --------------------------------------------------------------------------*
    1387 00000336           ||$C$L31||:    
    1388                            .dwpsn  file "../Drivers/uartstdio.c",line 1186,column 21,is_stmt,isa 1
    1389 00000336 9805              LDR       A1, [SP, #20]         ; [DPU_3_PIPE] |1186|  ; [ORIG 16-BIT INS]
    1390 00000338 B110              CBZ       A1, ||$C$L32||        ; []  ; [ORIG 16-BIT INS]
    1391                            ; BRANCHCC OCCURS {||$C$L32||}   ; [] |1186| 
    1392                    ;* --------------------------------------------------------------------------*
    1393                            .dwpsn  file "../Drivers/uartstdio.c",line 1188,column 25,is_stmt,isa 1
    1394 0000033a 9803              LDR       A1, [SP, #12]         ; [DPU_3_PIPE] |1188|  ; [ORIG 16-BIT INS]
    1395 0000033c 1E40              SUBS      A1, A1, #1            ; [DPU_3_PIPE] |1188|  ; [ORIG 16-BIT INS]
    1396 0000033e 9003              STR       A1, [SP, #12]         ; [DPU_3_PIPE] |1188|  ; [ORIG 16-BIT INS]
    1397                    ;* --------------------------------------------------------------------------*
    1398 00000340           ||$C$L32||:    
    1399                            .dwpsn  file "../Drivers/uartstdio.c",line 1195,column 21,is_stmt,isa 1
    1400 00000340 9805              LDR       A1, [SP, #20]         ; [DPU_3_PIPE] |1195|  ; [ORIG 16-BIT INS]
    1401 00000342 B158              CBZ       A1, ||$C$L33||        ; []  ; [ORIG 16-BIT INS]
    1402                            ; BRANCHCC OCCURS {||$C$L33||}   ; [] |1195| 
    1403                    ;* --------------------------------------------------------------------------*
    1404 00000344 002CF89D          LDRB      A1, [SP, #44]         ; [DPU_3_PIPE] |1195|  ; [KEEP 32-BIT INS]
    1405 00000348 2830              CMP       A1, #48               ; [DPU_3_PIPE] |1195|  ; [ORIG 16-BIT INS]
    1406 0000034a D107              BNE       ||$C$L33||            ; [DPU_3_PIPE] |1195|  ; [ORIG 16-BIT INS]
    1407                            ; BRANCHCC OCCURS {||$C$L33||}   ; [] |1195| 
    1408                    ;* --------------------------------------------------------------------------*
    1409                            .dwpsn  file "../Drivers/uartstdio.c",line 1200,column 25,is_stmt,isa 1
    1410 0000034c 9802              LDR       A1, [SP, #8]          ; [DPU_3_PIPE] |1200|  ; [ORIG 16-BIT INS]
    1411 0000034e 212D              MOVS      A2, #45               ; [DPU_3_PIPE] |1200|  ; [ORIG 16-BIT INS]
    1412 00000350 1C42              ADDS      A3, A1, #1            ; [DPU_3_PIPE] |1200|  ; [ORIG 16-BIT INS]
    1413 00000352 9202              STR       A3, [SP, #8]          ; [DPU_3_PIPE] |1200|  ; [ORIG 16-BIT INS]
    1414 00000354 4468              ADD       A1, A1, SP            ; [DPU_3_PIPE] |1200|  ; [ORIG 16-BIT INS]
    1415 00000356 7701              STRB      A2, [A1, #28]         ; [DPU_3_PIPE] |1200|  ; [ORIG 16-BIT INS]
    1416                            .dwpsn  file "../Drivers/uartstdio.c",line 1206,column 25,is_stmt,isa 1
    1417 00000358 2000              MOVS      A1, #0                ; [DPU_3_PIPE] |1206|  ; [ORIG 16-BIT INS]
    1418 0000035a 9005              STR       A1, [SP, #20]         ; [DPU_3_PIPE] |1206|  ; [ORIG 16-BIT INS]
    1419                    ;* --------------------------------------------------------------------------*
    1420 0000035c           ||$C$L33||:    
    1421                            .dwpsn  file "../Drivers/uartstdio.c",line 1213,column 21,is_stmt,isa 1
    1422 0000035c 9803              LDR       A1, [SP, #12]         ; [DPU_3_PIPE] |1213|  ; [ORIG 16-BIT INS]
    1423 0000035e 2801              CMP       A1, #1                ; [DPU_3_PIPE] |1213|  ; [ORIG 16-BIT INS]
    1424 00000360 D914              BLS       ||$C$L35||            ; [DPU_3_PIPE] |1213|  ; [ORIG 16-BIT INS]
    1425                            ; BRANCHCC OCCURS {||$C$L35||}   ; [] |1213| 
TI ARM Assembler PC v15.12.1 Tue Sep 13 14:05:54 2016

Tools Copyright (c) 1996-2015 Texas Instruments Incorporated
uartstdio.asm                                                        PAGE   27

    1426                    ;* --------------------------------------------------------------------------*
    1427 00000362 9803              LDR       A1, [SP, #12]         ; [DPU_3_PIPE] |1213|  ; [ORIG 16-BIT INS]
    1428 00000364 2810              CMP       A1, #16               ; [DPU_3_PIPE] |1213|  ; [ORIG 16-BIT INS]
    1429 00000366 D211              BCS       ||$C$L35||            ; [DPU_3_PIPE] |1213|  ; [ORIG 16-BIT INS]
    1430                            ; BRANCHCC OCCURS {||$C$L35||}   ; [] |1213| 
    1431                    ;* --------------------------------------------------------------------------*
    1432                            .dwpsn  file "../Drivers/uartstdio.c",line 1215,column 29,is_stmt,isa 1
    1433 00000368 9803              LDR       A1, [SP, #12]         ; [DPU_3_PIPE] |1215|  ; [ORIG 16-BIT INS]
    1434 0000036a 1E40              SUBS      A1, A1, #1            ; [DPU_3_PIPE] |1215|  ; [ORIG 16-BIT INS]
    1435 0000036c 9003              STR       A1, [SP, #12]         ; [DPU_3_PIPE] |1215|  ; [ORIG 16-BIT INS]
    1436                            .dwpsn  file "../Drivers/uartstdio.c",line 1215,column 25,is_stmt,isa 1
    1437 0000036e 9803              LDR       A1, [SP, #12]         ; [DPU_3_PIPE] |1215|  ; [ORIG 16-BIT INS]
    1438 00000370 B160              CBZ       A1, ||$C$L35||        ; []  ; [ORIG 16-BIT INS]
    1439                            ; BRANCHCC OCCURS {||$C$L35||}   ; [] |1215| 
    1440                    ;* --------------------------------------------------------------------------*
    1441                    ;*   BEGIN LOOP ||$C$L34||
    1442                    ;*
    1443                    ;*   Loop source line                : 1215
    1444                    ;*   Loop closing brace source line  : 1218
    1445                    ;*   Known Minimum Trip Count        : 1
    1446                    ;*   Known Maximum Trip Count        : 4294967295
    1447                    ;*   Known Max Trip Count Factor     : 1
    1448                    ;* --------------------------------------------------------------------------*
    1449 00000372           ||$C$L34||:    
    1450                            .dwpsn  file "../Drivers/uartstdio.c",line 1217,column 29,is_stmt,isa 1
    1451 00000372 9802              LDR       A1, [SP, #8]          ; [DPU_3_PIPE] |1217|  ; [ORIG 16-BIT INS]
    1452 00000374 102CF89D          LDRB      A2, [SP, #44]         ; [DPU_3_PIPE] |1217|  ; [KEEP 32-BIT INS]
    1453 00000378 1C42              ADDS      A3, A1, #1            ; [DPU_3_PIPE] |1217|  ; [ORIG 16-BIT INS]
    1454 0000037a 9202              STR       A3, [SP, #8]          ; [DPU_3_PIPE] |1217|  ; [ORIG 16-BIT INS]
    1455 0000037c 4468              ADD       A1, A1, SP            ; [DPU_3_PIPE] |1217|  ; [ORIG 16-BIT INS]
    1456 0000037e 7701              STRB      A2, [A1, #28]         ; [DPU_3_PIPE] |1217|  ; [ORIG 16-BIT INS]
    1457                            .dwpsn  file "../Drivers/uartstdio.c",line 1215,column 49,is_stmt,isa 1
    1458 00000380 9803              LDR       A1, [SP, #12]         ; [DPU_3_PIPE] |1215|  ; [ORIG 16-BIT INS]
    1459 00000382 1E40              SUBS      A1, A1, #1            ; [DPU_3_PIPE] |1215|  ; [ORIG 16-BIT INS]
    1460 00000384 9003              STR       A1, [SP, #12]         ; [DPU_3_PIPE] |1215|  ; [ORIG 16-BIT INS]
    1461                            .dwpsn  file "../Drivers/uartstdio.c",line 1215,column 25,is_stmt,isa 1
    1462 00000386 9803              LDR       A1, [SP, #12]         ; [DPU_3_PIPE] |1215|  ; [ORIG 16-BIT INS]
    1463 00000388 2800              CMP       A1, #0                ; [DPU_3_PIPE] |1215|  ; [ORIG 16-BIT INS]
    1464 0000038a D1F2              BNE       ||$C$L34||            ; [DPU_3_PIPE] |1215|  ; [ORIG 16-BIT INS]
    1465                            ; BRANCHCC OCCURS {||$C$L34||}   ; [] |1215| 
    1466                    ;* --------------------------------------------------------------------------*
    1467 0000038c           ||$C$L35||:    
    1468                            .dwpsn  file "../Drivers/uartstdio.c",line 1225,column 21,is_stmt,isa 1
    1469 0000038c 9805              LDR       A1, [SP, #20]         ; [DPU_3_PIPE] |1225|  ; [ORIG 16-BIT INS]
    1470 0000038e B128              CBZ       A1, ||$C$L36||        ; []  ; [ORIG 16-BIT INS]
    1471                            ; BRANCHCC OCCURS {||$C$L36||}   ; [] |1225| 
    1472                    ;* --------------------------------------------------------------------------*
    1473                            .dwpsn  file "../Drivers/uartstdio.c",line 1230,column 25,is_stmt,isa 1
    1474 00000390 9802              LDR       A1, [SP, #8]          ; [DPU_3_PIPE] |1230|  ; [ORIG 16-BIT INS]
    1475 00000392 212D              MOVS      A2, #45               ; [DPU_3_PIPE] |1230|  ; [ORIG 16-BIT INS]
    1476 00000394 1C42              ADDS      A3, A1, #1            ; [DPU_3_PIPE] |1230|  ; [ORIG 16-BIT INS]
    1477 00000396 9202              STR       A3, [SP, #8]          ; [DPU_3_PIPE] |1230|  ; [ORIG 16-BIT INS]
    1478 00000398 4468              ADD       A1, A1, SP            ; [DPU_3_PIPE] |1230|  ; [ORIG 16-BIT INS]
    1479 0000039a 7701              STRB      A2, [A1, #28]         ; [DPU_3_PIPE] |1230|  ; [ORIG 16-BIT INS]
    1480                    ;* --------------------------------------------------------------------------*
TI ARM Assembler PC v15.12.1 Tue Sep 13 14:05:54 2016

Tools Copyright (c) 1996-2015 Texas Instruments Incorporated
uartstdio.asm                                                        PAGE   28

    1481 0000039c           ||$C$L36||:    
    1482                            .dwpsn  file "../Drivers/uartstdio.c",line 1236,column 21,is_stmt,isa 1
    1483 0000039c 9800              LDR       A1, [SP, #0]          ; [DPU_3_PIPE] |1236|  ; [ORIG 16-BIT INS]
    1484 0000039e B1B0              CBZ       A1, ||$C$L38||        ; []  ; [ORIG 16-BIT INS]
    1485                            ; BRANCHCC OCCURS {||$C$L38||}   ; [] |1236| 
    1486                    ;* --------------------------------------------------------------------------*
    1487                    ;*   BEGIN LOOP ||$C$L37||
    1488                    ;*
    1489                    ;*   Loop source line                : 1236
    1490                    ;*   Loop closing brace source line  : 1239
    1491                    ;*   Known Minimum Trip Count        : 1
    1492                    ;*   Known Maximum Trip Count        : 4294967295
    1493                    ;*   Known Max Trip Count Factor     : 1
    1494                    ;* --------------------------------------------------------------------------*
    1495 000003a0           ||$C$L37||:    
    1496                            .dwpsn  file "../Drivers/uartstdio.c",line 1238,column 25,is_stmt,isa 1
    1497 000003a0 9800              LDR       A1, [SP, #0]          ; [DPU_3_PIPE] |1238|  ; [ORIG 16-BIT INS]
    1498 000003a2 9A01              LDR       A3, [SP, #4]          ; [DPU_3_PIPE] |1238|  ; [ORIG 16-BIT INS]
    1499 000003a4 9904              LDR       A2, [SP, #16]         ; [DPU_3_PIPE] |1238|  ; [ORIG 16-BIT INS]
    1500 000003a6 F0F0FBB2          UDIV      A1, A3, A1            ; [DPU_3_PIPE] |1238|  ; [KEEP 32-BIT INS]
    1501                    $C$DW$82        .dwtag  DW_TAG_TI_branch
    1502                            .dwattr $C$DW$82, DW_AT_low_pc(0x00)
    1503                            .dwattr $C$DW$82, DW_AT_name("U$MOD")
    1504                            .dwattr $C$DW$82, DW_AT_TI_call
    1505                    
    1506 000003aa FFFEF7FF!         BL        __aeabi_uidivmod      ; [DPU_3_PIPE] |1238|  ; [KEEP 32-BIT INS]
    1507                            ; CALL OCCURS {__aeabi_uidivmod }  ; [] |1238| 
    1508 000003ae 4A35              LDR       A3, $C$CON5           ; [DPU_3_PIPE] |1238|  ; [ORIG 16-BIT INS]
    1509 000003b0 9802              LDR       A1, [SP, #8]          ; [DPU_3_PIPE] |1238|  ; [ORIG 16-BIT INS]
    1510 000003b2 6813              LDR       A4, [A3, #0]          ; [DPU_3_PIPE] |1238|  ; [ORIG 16-BIT INS]
    1511 000003b4 1C42              ADDS      A3, A1, #1            ; [DPU_3_PIPE] |1238|  ; [ORIG 16-BIT INS]
    1512 000003b6 5CC9              LDRB      A2, [A2, +A4]         ; [DPU_3_PIPE] |1238|  ; [ORIG 16-BIT INS]
    1513 000003b8 9202              STR       A3, [SP, #8]          ; [DPU_3_PIPE] |1238|  ; [ORIG 16-BIT INS]
    1514 000003ba 4468              ADD       A1, A1, SP            ; [DPU_3_PIPE] |1238|  ; [ORIG 16-BIT INS]
    1515 000003bc 7701              STRB      A2, [A1, #28]         ; [DPU_3_PIPE] |1238|  ; [ORIG 16-BIT INS]
    1516                            .dwpsn  file "../Drivers/uartstdio.c",line 1236,column 34,is_stmt,isa 1
    1517 000003be 9804              LDR       A1, [SP, #16]         ; [DPU_3_PIPE] |1236|  ; [ORIG 16-BIT INS]
    1518 000003c0 9900              LDR       A2, [SP, #0]          ; [DPU_3_PIPE] |1236|  ; [ORIG 16-BIT INS]
    1519 000003c2 F0F0FBB1          UDIV      A1, A2, A1            ; [DPU_3_PIPE] |1236|  ; [KEEP 32-BIT INS]
    1520 000003c6 9000              STR       A1, [SP, #0]          ; [DPU_3_PIPE] |1236|  ; [ORIG 16-BIT INS]
    1521                            .dwpsn  file "../Drivers/uartstdio.c",line 1236,column 21,is_stmt,isa 1
    1522 000003c8 9800              LDR       A1, [SP, #0]          ; [DPU_3_PIPE] |1236|  ; [ORIG 16-BIT INS]
    1523 000003ca 2800              CMP       A1, #0                ; [DPU_3_PIPE] |1236|  ; [ORIG 16-BIT INS]
    1524 000003cc D1E8              BNE       ||$C$L37||            ; [DPU_3_PIPE] |1236|  ; [ORIG 16-BIT INS]
    1525                            ; BRANCHCC OCCURS {||$C$L37||}   ; [] |1236| 
    1526                    ;* --------------------------------------------------------------------------*
    1527 000003ce           ||$C$L38||:    
    1528                            .dwpsn  file "../Drivers/uartstdio.c",line 1244,column 21,is_stmt,isa 1
    1529 000003ce 9902              LDR       A2, [SP, #8]          ; [DPU_3_PIPE] |1244|  ; [ORIG 16-BIT INS]
    1530 000003d0 A807              ADD       A1, SP, #28           ; [DPU_3_PIPE] |1244|  ; [ORIG 16-BIT INS]
    1531                    $C$DW$83        .dwtag  DW_TAG_TI_branch
    1532                            .dwattr $C$DW$83, DW_AT_low_pc(0x00)
    1533                            .dwattr $C$DW$83, DW_AT_name("UARTwrite")
    1534                            .dwattr $C$DW$83, DW_AT_TI_call
    1535                    
TI ARM Assembler PC v15.12.1 Tue Sep 13 14:05:54 2016

Tools Copyright (c) 1996-2015 Texas Instruments Incorporated
uartstdio.asm                                                        PAGE   29

    1536 000003d2 FE41F7FF          BL        UARTwrite             ; [DPU_3_PIPE] |1244|  ; [KEEP 32-BIT INS]
    1537                            ; CALL OCCURS {UARTwrite }       ; [] |1244| 
    1538                            .dwpsn  file "../Drivers/uartstdio.c",line 1249,column 21,is_stmt,isa 1
    1539 000003d6 E045              B         ||$C$L44||            ; [DPU_3_PIPE] |1249|  ; [ORIG 16-BIT INS]
    1540                            ; BRANCH OCCURS {||$C$L44||}     ; [] |1249| 
    1541                    ;* --------------------------------------------------------------------------*
    1542 000003d8           ||$C$L39||:    
    1543                            .dwpsn  file "../Drivers/uartstdio.c",line 1260,column 21,is_stmt,isa 1
    1544 000003d8 6838              LDR       A1, [V4, #0]          ; [DPU_3_PIPE] |1260|  ; [ORIG 16-BIT INS]
    1545 000003da 2101              MOVS      A2, #1                ; [DPU_3_PIPE] |1260|  ; [ORIG 16-BIT INS]
    1546 000003dc 1E40              SUBS      A1, A1, #1            ; [DPU_3_PIPE] |1260|  ; [ORIG 16-BIT INS]
    1547                    $C$DW$84        .dwtag  DW_TAG_TI_branch
    1548                            .dwattr $C$DW$84, DW_AT_low_pc(0x00)
    1549                            .dwattr $C$DW$84, DW_AT_name("UARTwrite")
    1550                            .dwattr $C$DW$84, DW_AT_TI_call
    1551                    
    1552 000003de FE3BF7FF          BL        UARTwrite             ; [DPU_3_PIPE] |1260|  ; [KEEP 32-BIT INS]
    1553                            ; CALL OCCURS {UARTwrite }       ; [] |1260| 
    1554                            .dwpsn  file "../Drivers/uartstdio.c",line 1265,column 21,is_stmt,isa 1
    1555 000003e2 E03F              B         ||$C$L44||            ; [DPU_3_PIPE] |1265|  ; [ORIG 16-BIT INS]
    1556                            ; BRANCH OCCURS {||$C$L44||}     ; [] |1265| 
    1557                    ;* --------------------------------------------------------------------------*
    1558 000003e4           ||$C$L40||:    
    1559                            .dwpsn  file "../Drivers/uartstdio.c",line 1276,column 21,is_stmt,isa 1
    1560 000003e4 A025              ADR       A1, $C$SL5            ; [DPU_3_PIPE] |1276|  ; [ORIG 16-BIT INS]
    1561 000003e6 2105              MOVS      A2, #5                ; [DPU_3_PIPE] |1276|  ; [ORIG 16-BIT INS]
    1562                    $C$DW$85        .dwtag  DW_TAG_TI_branch
    1563                            .dwattr $C$DW$85, DW_AT_low_pc(0x00)
    1564                            .dwattr $C$DW$85, DW_AT_name("UARTwrite")
    1565                            .dwattr $C$DW$85, DW_AT_TI_call
    1566                    
    1567 000003e8 FE36F7FF          BL        UARTwrite             ; [DPU_3_PIPE] |1276|  ; [KEEP 32-BIT INS]
    1568                            ; CALL OCCURS {UARTwrite }       ; [] |1276| 
    1569                            .dwpsn  file "../Drivers/uartstdio.c",line 1281,column 21,is_stmt,isa 1
    1570 000003ec E03A              B         ||$C$L44||            ; [DPU_3_PIPE] |1281|  ; [ORIG 16-BIT INS]
    1571                            ; BRANCH OCCURS {||$C$L44||}     ; [] |1281| 
    1572                    ;* --------------------------------------------------------------------------*
    1573                    ;* --------------------------------------------------------------------------*
    1574                    ;*   BEGIN LOOP ||$C$L41||
    1575                    ;* --------------------------------------------------------------------------*
    1576 000003ee           ||$C$L41||:    
    1577                            .dwpsn  file "../Drivers/uartstdio.c",line 959,column 13,is_stmt,isa 1
    1578 000003ee 6839              LDR       A2, [V4, #0]          ; [DPU_3_PIPE] |959|  ; [ORIG 16-BIT INS]
    1579 000003f0 0B01F811          LDRB      A1, [A2], #1          ; [DPU_3_PIPE] |959|  ; [KEEP 32-BIT INS]
    1580 000003f4 2864              CMP       A1, #100              ; [DPU_3_PIPE] |959|  ; [ORIG 16-BIT INS]
    1581 000003f6 6039              STR       A2, [V4, #0]          ; [DPU_3_PIPE] |959|  ; [ORIG 16-BIT INS]
    1582 000003f8 DC0E              BGT       ||$C$L42||            ; [DPU_3_PIPE] |959|  ; [ORIG 16-BIT INS]
    1583                            ; BRANCHCC OCCURS {||$C$L42||}   ; [] |959| 
    1584                    ;* --------------------------------------------------------------------------*
    1585 000003fa 2864              CMP       A1, #100              ; [DPU_3_PIPE] |959|  ; [ORIG 16-BIT INS]
    1586 000003fc AF14F43F          BEQ       ||$C$L19||            ; [DPU_3_PIPE] |959|  ; [KEEP 32-BIT INS]
    1587                            ; BRANCHCC OCCURS {||$C$L19||}   ; [] |959| 
    1588                    ;* --------------------------------------------------------------------------*
    1589 00000400 3825              SUBS      A1, A1, #37           ; [DPU_3_PIPE] |959|  ; [ORIG 16-BIT INS]
    1590 00000402 D0E9              BEQ       ||$C$L39||            ; [DPU_3_PIPE] |959|  ; [ORIG 16-BIT INS]
TI ARM Assembler PC v15.12.1 Tue Sep 13 14:05:54 2016

Tools Copyright (c) 1996-2015 Texas Instruments Incorporated
uartstdio.asm                                                        PAGE   30

    1591                            ; BRANCHCC OCCURS {||$C$L39||}   ; [] |959| 
    1592                    ;* --------------------------------------------------------------------------*
    1593 00000404 380B              SUBS      A1, A1, #11           ; [DPU_3_PIPE] |959|  ; [ORIG 16-BIT INS]
    1594 00000406 2809              CMP       A1, #9                ; [DPU_3_PIPE] |959|  ; [ORIG 16-BIT INS]
    1595 00000408 D913              BLS       ||$C$L43||            ; [DPU_3_PIPE] |959|  ; [ORIG 16-BIT INS]
    1596                            ; BRANCHCC OCCURS {||$C$L43||}   ; [] |959| 
    1597                    ;* --------------------------------------------------------------------------*
    1598 0000040a 3828              SUBS      A1, A1, #40           ; [DPU_3_PIPE] |959|  ; [ORIG 16-BIT INS]
    1599 0000040c AF6AF43F          BEQ       ||$C$L27||            ; [DPU_3_PIPE] |959|  ; [KEEP 32-BIT INS]
    1600                            ; BRANCHCC OCCURS {||$C$L27||}   ; [] |959| 
    1601                    ;* --------------------------------------------------------------------------*
    1602 00000410 380B              SUBS      A1, A1, #11           ; [DPU_3_PIPE] |959|  ; [ORIG 16-BIT INS]
    1603 00000412 AEFAF43F          BEQ       ||$C$L18||            ; [DPU_3_PIPE] |959|  ; [KEEP 32-BIT INS]
    1604                            ; BRANCHCC OCCURS {||$C$L18||}   ; [] |959| 
    1605                    ;* --------------------------------------------------------------------------*
    1606 00000416 E7E5              B         ||$C$L40||            ; [DPU_3_PIPE] |959|  ; [ORIG 16-BIT INS]
    1607                            ; BRANCH OCCURS {||$C$L40||}     ; [] |959| 
    1608                    ;* --------------------------------------------------------------------------*
    1609 00000418           ||$C$L42||:    
    1610 00000418 3870              SUBS      A1, A1, #112          ; [DPU_3_PIPE] |959|  ; [ORIG 16-BIT INS]
    1611 0000041a AF63F43F          BEQ       ||$C$L27||            ; [DPU_3_PIPE] |959|  ; [KEEP 32-BIT INS]
    1612                            ; BRANCHCC OCCURS {||$C$L27||}   ; [] |959| 
    1613                    ;* --------------------------------------------------------------------------*
    1614 0000041e 1EC0              SUBS      A1, A1, #3            ; [DPU_3_PIPE] |959|  ; [ORIG 16-BIT INS]
    1615 00000420 AF1CF43F          BEQ       ||$C$L22||            ; [DPU_3_PIPE] |959|  ; [KEEP 32-BIT INS]
    1616                            ; BRANCHCC OCCURS {||$C$L22||}   ; [] |959| 
    1617                    ;* --------------------------------------------------------------------------*
    1618 00000424 1E80              SUBS      A1, A1, #2            ; [DPU_3_PIPE] |959|  ; [ORIG 16-BIT INS]
    1619 00000426 AF4CF43F          BEQ       ||$C$L26||            ; [DPU_3_PIPE] |959|  ; [KEEP 32-BIT INS]
    1620                            ; BRANCHCC OCCURS {||$C$L26||}   ; [] |959| 
    1621                    ;* --------------------------------------------------------------------------*
    1622 0000042a 1EC0              SUBS      A1, A1, #3            ; [DPU_3_PIPE] |959|  ; [ORIG 16-BIT INS]
    1623 0000042c AF5AF43F          BEQ       ||$C$L27||            ; [DPU_3_PIPE] |959|  ; [KEEP 32-BIT INS]
    1624                            ; BRANCHCC OCCURS {||$C$L27||}   ; [] |959| 
    1625                    ;* --------------------------------------------------------------------------*
    1626 00000430 E7D8              B         ||$C$L40||            ; [DPU_3_PIPE] |959|  ; [ORIG 16-BIT INS]
    1627                            ; BRANCH OCCURS {||$C$L40||}     ; [] |959| 
    1628                    ;* --------------------------------------------------------------------------*
    1629 00000432           ||$C$L43||:    
    1630 00000432 A102              ADR       A2, ||$C$SW1||        ; [DPU_3_PIPE] |959|  ; [ORIG 16-BIT INS]
    1631 00000434 0020F851          LDR       A1, [A2, +A1, LSL #2] ; [DPU_3_PIPE] |959|  ; [KEEP 32-BIT INS]
    1632 00000438 4687              MOV       PC, A1                ; [DPU_3_PIPE] |959|  ; [ORIG 16-BIT INS]
    1633                            ; BRANCH OCCURS                  ; [] |959| 
    1634 0000043c 00000000! ||$C$SW1||:     .word   ||$C$L16||      ; 48
    1635 00000440 00000000!         .word   ||$C$L16||      ; 49
    1636 00000444 00000000!         .word   ||$C$L16||      ; 50
    1637 00000448 00000000!         .word   ||$C$L16||      ; 51
    1638 0000044c 00000000!         .word   ||$C$L16||      ; 52
    1639 00000450 00000000!         .word   ||$C$L16||      ; 53
    1640 00000454 00000000!         .word   ||$C$L16||      ; 54
    1641 00000458 00000000!         .word   ||$C$L16||      ; 55
    1642 0000045c 00000000!         .word   ||$C$L16||      ; 56
    1643 00000460 00000000!         .word   ||$C$L16||      ; 57
    1644                    ;* --------------------------------------------------------------------------*
    1645                    ;*   BEGIN LOOP ||$C$L44||
TI ARM Assembler PC v15.12.1 Tue Sep 13 14:05:54 2016

Tools Copyright (c) 1996-2015 Texas Instruments Incorporated
uartstdio.asm                                                        PAGE   31

    1646                    ;* --------------------------------------------------------------------------*
    1647 00000464           ||$C$L44||:    
    1648                            .dwpsn  file "../Drivers/uartstdio.c",line 912,column 5,is_stmt,isa 1
    1649 00000464 6838              LDR       A1, [V4, #0]          ; [DPU_3_PIPE] |912|  ; [ORIG 16-BIT INS]
    1650 00000466 7800              LDRB      A1, [A1, #0]          ; [DPU_3_PIPE] |912|  ; [ORIG 16-BIT INS]
    1651 00000468 2800              CMP       A1, #0                ; [DPU_3_PIPE] |912|  ; [ORIG 16-BIT INS]
    1652 0000046a AE91F47F          BNE       ||$C$L11||            ; [DPU_3_PIPE] |912|  ; [KEEP 32-BIT INS]
    1653                            ; BRANCHCC OCCURS {||$C$L11||}   ; [] |912| 
    1654                    ;* --------------------------------------------------------------------------*
    1655                            .dwpsn  file "../Drivers/uartstdio.c",line 1290,column 5,is_stmt,isa 1
    1656                            .dwpsn  file "../Drivers/uartstdio.c",line 1291,column 1,is_stmt,isa 1
    1657 0000046e B00E              ADD       SP, SP, #56           ; [DPU_3_PIPE]  ; [ORIG 16-BIT INS]
    1658                            .dwcfi  cfa_offset, 24
    1659 00000470 4080E8BD          POP       {V4, LR}              ; [DPU_3_PIPE]  ; [KEEP 32-BIT INS]
    1660                            .dwcfi  cfa_offset, 16
    1661                            .dwcfi  restore_reg, 14
    1662                            .dwcfi  restore_reg, 7
    1663 00000474 B004              ADD       SP, SP, #16           ; [DPU_3_PIPE]  ; [ORIG 16-BIT INS]
    1664                            .dwcfi  cfa_offset, 0
    1665                    $C$DW$86        .dwtag  DW_TAG_TI_branch
    1666                            .dwattr $C$DW$86, DW_AT_low_pc(0x00)
    1667                            .dwattr $C$DW$86, DW_AT_TI_return
    1668                    
    1669 00000476 4770              BX        LR                    ; [DPU_3_PIPE]  ; [ORIG 16-BIT INS]
    1670                            ; BRANCH OCCURS                  ; [] 
    1671                            .dwattr $C$DW$63, DW_AT_TI_end_file("../Drivers/uartstdio.c")
    1672                            .dwattr $C$DW$63, DW_AT_TI_end_line(0x50b)
    1673                            .dwattr $C$DW$63, DW_AT_TI_end_column(0x01)
    1674                            .dwendentry
    1675                            .dwendtag $C$DW$63
    1676                    
    1677                    ;******************************************************************************
    1678                    ;* STRINGS                                                                    *
    1679                    ;******************************************************************************
    1680 00000478                   .sect   ".text"
    1681                            .align  4
    1682 00000478 20        ||$C$SL4||:     .string " ",0
         00000479 00       
    1683                            .align  4
    1684 0000047c 45        ||$C$SL5||:     .string "ERROR",0
         0000047d 52       
         0000047e 52       
         0000047f 4F       
         00000480 52       
         00000481 00       
    1685                    ;******************************************************************************
    1686                    ;* CONSTANT TABLE                                                             *
    1687                    ;******************************************************************************
    1688 00000482                   .sect   ".text"
    1689                            .align  4
    1690 00000484 00000000! ||$C$CON5||:    .bits   g_pcHex,32
    1691                    ;******************************************************************************
    1692                    ;* STRINGS                                                                    *
    1693                    ;******************************************************************************
    1694 00000000                   .sect   ".const:.string"
TI ARM Assembler PC v15.12.1 Tue Sep 13 14:05:54 2016

Tools Copyright (c) 1996-2015 Texas Instruments Incorporated
uartstdio.asm                                                        PAGE   32

    1695                            .align  4
    1696 00000000 30        ||$C$SL1||:     .string "0123456789abcdef",0
         00000001 31       
         00000002 32       
         00000003 33       
         00000004 34       
         00000005 35       
         00000006 36       
         00000007 37       
         00000008 38       
         00000009 39       
         0000000a 61       
         0000000b 62       
         0000000c 63       
         0000000d 64       
         0000000e 65       
         0000000f 66       
         00000010 00       
    1697                    ;*****************************************************************************
    1698                    ;* UNDEFINED EXTERNAL REFERENCES                                             *
    1699                    ;*****************************************************************************
    1700                            .global SysCtlPeripheralPresent
    1701                            .global SysCtlPeripheralEnable
    1702                            .global SysCtlClockGet
    1703                            .global UARTConfigSetExpClk
    1704                            .global UARTEnable
    1705                            .global UARTCharGet
    1706                            .global UARTCharPut
    1707                            .global __aeabi_uidivmod
    1708                    
    1709                    ;******************************************************************************
    1710                    ;* BUILD ATTRIBUTES                                                           *
    1711                    ;******************************************************************************
    1712                            .battr "aeabi", Tag_File, 1, Tag_ABI_PCS_wchar_t(2)
    1713                            .battr "aeabi", Tag_File, 1, Tag_ABI_FP_rounding(0)
    1714                            .battr "aeabi", Tag_File, 1, Tag_ABI_FP_denormal(0)
    1715                            .battr "aeabi", Tag_File, 1, Tag_ABI_FP_exceptions(0)
    1716                            .battr "aeabi", Tag_File, 1, Tag_ABI_FP_number_model(1)
    1717                            .battr "aeabi", Tag_File, 1, Tag_ABI_enum_size(0)
    1718                            .battr "aeabi", Tag_File, 1, Tag_ABI_optimization_goals(5)
    1719                            .battr "aeabi", Tag_File, 1, Tag_ABI_FP_optimization_goals(0)
    1720                            .battr "TI", Tag_File, 1, Tag_Bitfield_layout(2)
    1721                            .battr "TI", Tag_File, 1, Tag_FP_interface(1)
    1722                    
    1723                    ;******************************************************************************
    1724                    ;* TYPE INFORMATION                                                           *
    1725                    ;******************************************************************************
    1726                    $C$DW$T$2       .dwtag  DW_TAG_unspecified_type
    1727                            .dwattr $C$DW$T$2, DW_AT_name("void")
    1728                    
    1729                    $C$DW$T$3       .dwtag  DW_TAG_pointer_type
    1730                            .dwattr $C$DW$T$3, DW_AT_type(*$C$DW$T$2)
    1731                            .dwattr $C$DW$T$3, DW_AT_address_class(0x20)
    1732                    
    1733                    $C$DW$T$4       .dwtag  DW_TAG_base_type
TI ARM Assembler PC v15.12.1 Tue Sep 13 14:05:54 2016

Tools Copyright (c) 1996-2015 Texas Instruments Incorporated
uartstdio.asm                                                        PAGE   33

    1734                            .dwattr $C$DW$T$4, DW_AT_encoding(DW_ATE_boolean)
    1735                            .dwattr $C$DW$T$4, DW_AT_name("bool")
    1736                            .dwattr $C$DW$T$4, DW_AT_byte_size(0x01)
    1737                    
    1738                    $C$DW$T$5       .dwtag  DW_TAG_base_type
    1739                            .dwattr $C$DW$T$5, DW_AT_encoding(DW_ATE_signed_char)
    1740                            .dwattr $C$DW$T$5, DW_AT_name("signed char")
    1741                            .dwattr $C$DW$T$5, DW_AT_byte_size(0x01)
    1742                    
    1743                    $C$DW$T$6       .dwtag  DW_TAG_base_type
    1744                            .dwattr $C$DW$T$6, DW_AT_encoding(DW_ATE_unsigned_char)
    1745                            .dwattr $C$DW$T$6, DW_AT_name("unsigned char")
    1746                            .dwattr $C$DW$T$6, DW_AT_byte_size(0x01)
    1747                    
    1748                    $C$DW$T$33      .dwtag  DW_TAG_typedef
    1749                            .dwattr $C$DW$T$33, DW_AT_name("tBoolean")
    1750                            .dwattr $C$DW$T$33, DW_AT_type(*$C$DW$T$6)
    1751                            .dwattr $C$DW$T$33, DW_AT_language(DW_LANG_C)
    1752                            .dwattr $C$DW$T$33, DW_AT_decl_file("C:/TI_CodeComposer/StellarisWare-LM3S1968/inc/hw_types.h"
    1753                            .dwattr $C$DW$T$33, DW_AT_decl_line(0x30)
    1754                            .dwattr $C$DW$T$33, DW_AT_decl_column(0x17)
    1755                    
    1756                    $C$DW$T$7       .dwtag  DW_TAG_base_type
    1757                            .dwattr $C$DW$T$7, DW_AT_encoding(DW_ATE_signed_char)
    1758                            .dwattr $C$DW$T$7, DW_AT_name("wchar_t")
    1759                            .dwattr $C$DW$T$7, DW_AT_byte_size(0x02)
    1760                    
    1761                    $C$DW$T$8       .dwtag  DW_TAG_base_type
    1762                            .dwattr $C$DW$T$8, DW_AT_encoding(DW_ATE_signed)
    1763                            .dwattr $C$DW$T$8, DW_AT_name("short")
    1764                            .dwattr $C$DW$T$8, DW_AT_byte_size(0x02)
    1765                    
    1766                    $C$DW$T$9       .dwtag  DW_TAG_base_type
    1767                            .dwattr $C$DW$T$9, DW_AT_encoding(DW_ATE_unsigned)
    1768                            .dwattr $C$DW$T$9, DW_AT_name("unsigned short")
    1769                            .dwattr $C$DW$T$9, DW_AT_byte_size(0x02)
    1770                    
    1771                    $C$DW$T$10      .dwtag  DW_TAG_base_type
    1772                            .dwattr $C$DW$T$10, DW_AT_encoding(DW_ATE_signed)
    1773                            .dwattr $C$DW$T$10, DW_AT_name("int")
    1774                            .dwattr $C$DW$T$10, DW_AT_byte_size(0x04)
    1775                    
    1776                    $C$DW$T$11      .dwtag  DW_TAG_base_type
    1777                            .dwattr $C$DW$T$11, DW_AT_encoding(DW_ATE_unsigned)
    1778                            .dwattr $C$DW$T$11, DW_AT_name("unsigned int")
    1779                            .dwattr $C$DW$T$11, DW_AT_byte_size(0x04)
    1780                    
    1781                    $C$DW$T$12      .dwtag  DW_TAG_base_type
    1782                            .dwattr $C$DW$T$12, DW_AT_encoding(DW_ATE_signed)
    1783                            .dwattr $C$DW$T$12, DW_AT_name("long")
    1784                            .dwattr $C$DW$T$12, DW_AT_byte_size(0x04)
    1785                    
    1786                    $C$DW$T$13      .dwtag  DW_TAG_base_type
    1787                            .dwattr $C$DW$T$13, DW_AT_encoding(DW_ATE_unsigned)
    1788                            .dwattr $C$DW$T$13, DW_AT_name("unsigned long")
TI ARM Assembler PC v15.12.1 Tue Sep 13 14:05:54 2016

Tools Copyright (c) 1996-2015 Texas Instruments Incorporated
uartstdio.asm                                                        PAGE   34

    1789                            .dwattr $C$DW$T$13, DW_AT_byte_size(0x04)
    1790                    
    1791                    $C$DW$T$44      .dwtag  DW_TAG_const_type
    1792                            .dwattr $C$DW$T$44, DW_AT_type(*$C$DW$T$13)
    1793                    
    1794                    
    1795                    $C$DW$T$45      .dwtag  DW_TAG_array_type
    1796                            .dwattr $C$DW$T$45, DW_AT_type(*$C$DW$T$44)
    1797                            .dwattr $C$DW$T$45, DW_AT_language(DW_LANG_C)
    1798                            .dwattr $C$DW$T$45, DW_AT_byte_size(0x0c)
    1799                    $C$DW$87        .dwtag  DW_TAG_subrange_type
    1800                            .dwattr $C$DW$87, DW_AT_upper_bound(0x02)
    1801                    
    1802                            .dwendtag $C$DW$T$45
    1803                    
    1804                    $C$DW$T$14      .dwtag  DW_TAG_base_type
    1805                            .dwattr $C$DW$T$14, DW_AT_encoding(DW_ATE_signed)
    1806                            .dwattr $C$DW$T$14, DW_AT_name("long long")
    1807                            .dwattr $C$DW$T$14, DW_AT_byte_size(0x08)
    1808                    
    1809                    $C$DW$T$15      .dwtag  DW_TAG_base_type
    1810                            .dwattr $C$DW$T$15, DW_AT_encoding(DW_ATE_unsigned)
    1811                            .dwattr $C$DW$T$15, DW_AT_name("unsigned long long")
    1812                            .dwattr $C$DW$T$15, DW_AT_byte_size(0x08)
    1813                    
    1814                    $C$DW$T$16      .dwtag  DW_TAG_base_type
    1815                            .dwattr $C$DW$T$16, DW_AT_encoding(DW_ATE_float)
    1816                            .dwattr $C$DW$T$16, DW_AT_name("float")
    1817                            .dwattr $C$DW$T$16, DW_AT_byte_size(0x04)
    1818                    
    1819                    $C$DW$T$17      .dwtag  DW_TAG_base_type
    1820                            .dwattr $C$DW$T$17, DW_AT_encoding(DW_ATE_float)
    1821                            .dwattr $C$DW$T$17, DW_AT_name("double")
    1822                            .dwattr $C$DW$T$17, DW_AT_byte_size(0x08)
    1823                    
    1824                    $C$DW$T$18      .dwtag  DW_TAG_base_type
    1825                            .dwattr $C$DW$T$18, DW_AT_encoding(DW_ATE_float)
    1826                            .dwattr $C$DW$T$18, DW_AT_name("long double")
    1827                            .dwattr $C$DW$T$18, DW_AT_byte_size(0x08)
    1828                    
    1829                    $C$DW$T$29      .dwtag  DW_TAG_const_type
    1830                            .dwattr $C$DW$T$29, DW_AT_type(*$C$DW$T$6)
    1831                    
    1832                    $C$DW$T$30      .dwtag  DW_TAG_pointer_type
    1833                            .dwattr $C$DW$T$30, DW_AT_type(*$C$DW$T$29)
    1834                            .dwattr $C$DW$T$30, DW_AT_address_class(0x20)
    1835                    
    1836                    $C$DW$T$48      .dwtag  DW_TAG_const_type
    1837                            .dwattr $C$DW$T$48, DW_AT_type(*$C$DW$T$30)
    1838                    
    1839                    $C$DW$T$38      .dwtag  DW_TAG_pointer_type
    1840                            .dwattr $C$DW$T$38, DW_AT_type(*$C$DW$T$6)
    1841                            .dwattr $C$DW$T$38, DW_AT_address_class(0x20)
    1842                    
    1843                    
TI ARM Assembler PC v15.12.1 Tue Sep 13 14:05:54 2016

Tools Copyright (c) 1996-2015 Texas Instruments Incorporated
uartstdio.asm                                                        PAGE   35

    1844                    $C$DW$T$55      .dwtag  DW_TAG_array_type
    1845                            .dwattr $C$DW$T$55, DW_AT_type(*$C$DW$T$6)
    1846                            .dwattr $C$DW$T$55, DW_AT_language(DW_LANG_C)
    1847                            .dwattr $C$DW$T$55, DW_AT_byte_size(0x10)
    1848                    $C$DW$88        .dwtag  DW_TAG_subrange_type
    1849                            .dwattr $C$DW$88, DW_AT_upper_bound(0x0f)
    1850                    
    1851                            .dwendtag $C$DW$T$55
    1852                    
    1853                    
    1854                    $C$DW$T$19      .dwtag  DW_TAG_structure_type
    1855                            .dwattr $C$DW$T$19, DW_AT_name("__va_list")
    1856                            .dwattr $C$DW$T$19, DW_AT_byte_size(0x04)
    1857                    $C$DW$89        .dwtag  DW_TAG_member
    1858                            .dwattr $C$DW$89, DW_AT_type(*$C$DW$T$3)
    1859                            .dwattr $C$DW$89, DW_AT_name("__ap")
    1860                            .dwattr $C$DW$89, DW_AT_TI_symbol_name("__ap")
    1861                            .dwattr $C$DW$89, DW_AT_data_member_location[DW_OP_plus_uconst 0x0]
    1862                            .dwattr $C$DW$89, DW_AT_accessibility(DW_ACCESS_public)
    1863                            .dwattr $C$DW$89, DW_AT_decl_file("C:/TI_CodeComposer/ccsv6/tools/compiler/ti-cgt-arm_15.12.1.
    1864                            .dwattr $C$DW$89, DW_AT_decl_line(0x38)
    1865                            .dwattr $C$DW$89, DW_AT_decl_column(0x0c)
    1866                    
    1867                            .dwattr $C$DW$T$19, DW_AT_decl_file("C:/TI_CodeComposer/ccsv6/tools/compiler/ti-cgt-arm_15.12.
    1868                            .dwattr $C$DW$T$19, DW_AT_decl_line(0x37)
    1869                            .dwattr $C$DW$T$19, DW_AT_decl_column(0x10)
    1870                            .dwendtag $C$DW$T$19
    1871                    
    1872                    $C$DW$T$62      .dwtag  DW_TAG_typedef
    1873                            .dwattr $C$DW$T$62, DW_AT_name("va_list")
    1874                            .dwattr $C$DW$T$62, DW_AT_type(*$C$DW$T$19)
    1875                            .dwattr $C$DW$T$62, DW_AT_language(DW_LANG_C)
    1876                            .dwattr $C$DW$T$62, DW_AT_decl_file("C:/TI_CodeComposer/ccsv6/tools/compiler/ti-cgt-arm_15.12.
    1877                            .dwattr $C$DW$T$62, DW_AT_decl_line(0x39)
    1878                            .dwattr $C$DW$T$62, DW_AT_decl_column(0x03)
    1879                    
    1880                            .dwattr $C$DW$CU, DW_AT_language(DW_LANG_C)
    1881                    
    1882                    ;***************************************************************
    1883                    ;* DWARF CIE ENTRIES                                           *
    1884                    ;***************************************************************
    1885                    
    1886                    $C$DW$CIE       .dwcie 14
    1887                            .dwcfi  cfa_register, 13
    1888                            .dwcfi  cfa_offset, 0
    1889                            .dwcfi  undefined, 0
    1890                            .dwcfi  undefined, 1
    1891                            .dwcfi  undefined, 2
    1892                            .dwcfi  undefined, 3
    1893                            .dwcfi  same_value, 4
    1894                            .dwcfi  same_value, 5
    1895                            .dwcfi  same_value, 6
    1896                            .dwcfi  same_value, 7
    1897                            .dwcfi  same_value, 8
    1898                            .dwcfi  same_value, 9
TI ARM Assembler PC v15.12.1 Tue Sep 13 14:05:54 2016

Tools Copyright (c) 1996-2015 Texas Instruments Incorporated
uartstdio.asm                                                        PAGE   36

    1899                            .dwcfi  same_value, 10
    1900                            .dwcfi  same_value, 11
    1901                            .dwcfi  undefined, 12
    1902                            .dwcfi  undefined, 13
    1903                            .dwcfi  undefined, 14
    1904                            .dwcfi  undefined, 14
    1905                            .dwcfi  undefined, 7
    1906                            .dwendentry
    1907                            .dwendtag $C$DW$CU
    1908                    

--------------------------
Thumb2 Statistics
--------------------------
Number of Thumb2 ins converted to Thumb = 0 (0%)
Number of Thumb ins in input = 432 (85%)
Number of Thumb2 ins encoded as Thumb2 = 72 (100%)
Number of Thumb2 ins converted to 2 OPND Thumb = 12


No Assembly Errors, No Assembly Warnings
