TI ARM Assembler PC v15.12.1 Mon Nov 07 14:39:08 2016

Tools Copyright (c) 1996-2015 Texas Instruments Incorporated
Task_Trivial.asm                                                     PAGE    1

       1                    ;******************************************************************************
       2                    ;* TI ARM C/C++ Codegen                                       PC v15.12.1.LTS *
       3                    ;* Date/Time created: Mon Nov 07 14:39:08 2016                                *
       4                    ;******************************************************************************
       5                            .compiler_opts --abi=eabi --arm_vmrs_si_workaround=off --code_state=16 --diag_wrap=off --disab
       6 00000000                   .thumb
       7                    
       8                    $C$DW$CU        .dwtag  DW_TAG_compile_unit
       9                            .dwattr $C$DW$CU, DW_AT_name("../Tasks/Task_Trivial.c")
      10                            .dwattr $C$DW$CU, DW_AT_producer("TI TI ARM C/C++ Codegen PC v15.12.1.LTS Copyright (c) 1996-2
      11                            .dwattr $C$DW$CU, DW_AT_TI_version(0x01)
      12                            .dwattr $C$DW$CU, DW_AT_comp_dir("H:\EECS_388\TI_ARM_Projects\FreeRTOS823_LM3S1968_ADC_MultMea
      13                    
      14                    $C$DW$1 .dwtag  DW_TAG_subprogram
      15                            .dwattr $C$DW$1, DW_AT_name("UARTprintf")
      16                            .dwattr $C$DW$1, DW_AT_TI_symbol_name("UARTprintf")
      17                            .dwattr $C$DW$1, DW_AT_declaration
      18                            .dwattr $C$DW$1, DW_AT_external
      19                            .dwattr $C$DW$1, DW_AT_decl_file("H:/EECS_388/TI_ARM_Projects/FreeRTOS823_LM3S1968_ADC_MultMea
      20                            .dwattr $C$DW$1, DW_AT_decl_line(0x3f)
      21                            .dwattr $C$DW$1, DW_AT_decl_column(0x0d)
      22                    $C$DW$2 .dwtag  DW_TAG_formal_parameter
      23                            .dwattr $C$DW$2, DW_AT_type(*$C$DW$T$42)
      24                    
      25                    $C$DW$3 .dwtag  DW_TAG_unspecified_parameters
      26                    
      27                            .dwendtag $C$DW$1
      28                    
      29                    ;       C:\TI_CodeComposer\ccsv6\tools\compiler\ti-cgt-arm_15.12.1.LTS\bin\armacpia.exe -@C:\\Users\\a
      30 00000000                   .sect   ".text"
      31                            .clink
      32                            .thumbfunc Trivial
      33 00000000                   .thumb
      34                            .global Trivial
      35                    
      36                    $C$DW$4 .dwtag  DW_TAG_subprogram
      37                            .dwattr $C$DW$4, DW_AT_name("Trivial")
      38                            .dwattr $C$DW$4, DW_AT_low_pc(Trivial)
      39                            .dwattr $C$DW$4, DW_AT_high_pc(0x00)
      40                            .dwattr $C$DW$4, DW_AT_TI_symbol_name("Trivial")
      41                            .dwattr $C$DW$4, DW_AT_external
      42                            .dwattr $C$DW$4, DW_AT_TI_begin_file("../Tasks/Task_Trivial.c")
      43                            .dwattr $C$DW$4, DW_AT_TI_begin_line(0x1d)
      44                            .dwattr $C$DW$4, DW_AT_TI_begin_column(0x0d)
      45                            .dwattr $C$DW$4, DW_AT_decl_file("../Tasks/Task_Trivial.c")
      46                            .dwattr $C$DW$4, DW_AT_decl_line(0x1d)
      47                            .dwattr $C$DW$4, DW_AT_decl_column(0x0d)
      48                            .dwattr $C$DW$4, DW_AT_TI_max_frame_size(0x08)
      49                            .dwpsn  file "../Tasks/Task_Trivial.c",line 29,column 41,is_stmt,address Trivial,isa 1
      50                    
      51                            .dwfde $C$DW$CIE, Trivial
      52                    $C$DW$5 .dwtag  DW_TAG_formal_parameter
      53                            .dwattr $C$DW$5, DW_AT_name("pvParameters")
      54                            .dwattr $C$DW$5, DW_AT_TI_symbol_name("pvParameters")
      55                            .dwattr $C$DW$5, DW_AT_type(*$C$DW$T$3)
TI ARM Assembler PC v15.12.1 Mon Nov 07 14:39:08 2016

Tools Copyright (c) 1996-2015 Texas Instruments Incorporated
Task_Trivial.asm                                                     PAGE    2

      56                            .dwattr $C$DW$5, DW_AT_location[DW_OP_reg0]
      57                    
      58                    
      59                    ;*****************************************************************************
      60                    ;* FUNCTION NAME: Trivial                                                    *
      61                    ;*                                                                           *
      62                    ;*   Regs Modified     : A1,A2,A3,A4,V9,SP,LR,SR                             *
      63                    ;*   Regs Used         : A1,A2,A3,A4,V9,SP,LR,SR                             *
      64                    ;*   Local Frame Size  : 0 Args + 4 Auto + 4 Save = 8 byte                   *
      65                    ;*****************************************************************************
      66 00000000           Trivial:
      67                    ;* --------------------------------------------------------------------------*
      68                            .dwcfi  cfa_offset, 0
      69 00000000 B508              PUSH      {A4, LR}              ; [DPU_3_PIPE]  ; [ORIG 16-BIT INS]
      70                            .dwcfi  cfa_offset, 8
      71                            .dwcfi  save_reg_to_mem, 14, -4
      72                            .dwcfi  save_reg_to_mem, 3, -8
      73                    $C$DW$6 .dwtag  DW_TAG_variable
      74                            .dwattr $C$DW$6, DW_AT_name("pvParameters")
      75                            .dwattr $C$DW$6, DW_AT_TI_symbol_name("pvParameters")
      76                            .dwattr $C$DW$6, DW_AT_type(*$C$DW$T$3)
      77                            .dwattr $C$DW$6, DW_AT_location[DW_OP_breg13 0]
      78                    
      79 00000002 9000              STR       A1, [SP, #0]          ; [DPU_3_PIPE] |29|  ; [ORIG 16-BIT INS]
      80                            .dwpsn  file "../Tasks/Task_Trivial.c",line 30,column 2,is_stmt,isa 1
      81 00000004 A001              ADR       A1, $C$SL1            ; [DPU_3_PIPE] |30|  ; [ORIG 16-BIT INS]
      82                    $C$DW$7 .dwtag  DW_TAG_TI_branch
      83                            .dwattr $C$DW$7, DW_AT_low_pc(0x00)
      84                            .dwattr $C$DW$7, DW_AT_name("UARTprintf")
      85                            .dwattr $C$DW$7, DW_AT_TI_call
      86                    
      87 00000006 FFFEF7FF!         BL        UARTprintf            ; [DPU_3_PIPE] |30|  ; [KEEP 32-BIT INS]
      88                            ; CALL OCCURS {UARTprintf }      ; [] |30| 
      89                            .dwpsn  file "../Tasks/Task_Trivial.c",line 31,column 1,is_stmt,isa 1
      90                    $C$DW$8 .dwtag  DW_TAG_TI_branch
      91                            .dwattr $C$DW$8, DW_AT_low_pc(0x00)
      92                            .dwattr $C$DW$8, DW_AT_TI_return
      93                    
      94 0000000a BD08              POP       {A4, PC}              ; [DPU_3_PIPE]  ; [ORIG 16-BIT INS]
      95                            .dwcfi  cfa_offset, 0
      96                            ; BRANCH OCCURS                  ; [] 
      97                            .dwattr $C$DW$4, DW_AT_TI_end_file("../Tasks/Task_Trivial.c")
      98                            .dwattr $C$DW$4, DW_AT_TI_end_line(0x1f)
      99                            .dwattr $C$DW$4, DW_AT_TI_end_column(0x01)
     100                            .dwendentry
     101                            .dwendtag $C$DW$4
     102                    
     103                    ;******************************************************************************
     104                    ;* STRINGS                                                                    *
     105                    ;******************************************************************************
     106 0000000c                   .sect   ".text"
     107                            .align  4
     108 0000000c 54        ||$C$SL1||:     .string "Time:    0 mS  Vcap:     9 mV",10,"Time:    6 mS  Vcap:    "
         0000000d 69       
         0000000e 6D       
TI ARM Assembler PC v15.12.1 Mon Nov 07 14:39:08 2016

Tools Copyright (c) 1996-2015 Texas Instruments Incorporated
Task_Trivial.asm                                                     PAGE    3

         0000000f 65       
         00000010 3A       
         00000011 20       
         00000012 20       
         00000013 20       
         00000014 20       
         00000015 30       
         00000016 20       
         00000017 6D       
         00000018 53       
         00000019 20       
         0000001a 20       
         0000001b 56       
         0000001c 63       
         0000001d 61       
         0000001e 70       
         0000001f 3A       
         00000020 20       
         00000021 20       
         00000022 20       
         00000023 20       
         00000024 20       
         00000025 39       
         00000026 20       
         00000027 6D       
         00000028 56       
         00000029 0A       
         0000002a 54       
         0000002b 69       
         0000002c 6D       
         0000002d 65       
         0000002e 3A       
         0000002f 20       
         00000030 20       
         00000031 20       
         00000032 20       
         00000033 36       
         00000034 20       
         00000035 6D       
         00000036 53       
         00000037 20       
         00000038 20       
         00000039 56       
         0000003a 63       
         0000003b 61       
         0000003c 70       
         0000003d 3A       
         0000003e 20       
         0000003f 20       
         00000040 20       
         00000041 20       
     109 00000042 20                .string " 112 mV",10,"Time:    12 mS  Vcap:    316 mV",10,"Time:    "
         00000043 31       
         00000044 31       
         00000045 32       
TI ARM Assembler PC v15.12.1 Mon Nov 07 14:39:08 2016

Tools Copyright (c) 1996-2015 Texas Instruments Incorporated
Task_Trivial.asm                                                     PAGE    4

         00000046 20       
         00000047 6D       
         00000048 56       
         00000049 0A       
         0000004a 54       
         0000004b 69       
         0000004c 6D       
         0000004d 65       
         0000004e 3A       
         0000004f 20       
         00000050 20       
         00000051 20       
         00000052 20       
         00000053 31       
         00000054 32       
         00000055 20       
         00000056 6D       
         00000057 53       
         00000058 20       
         00000059 20       
         0000005a 56       
         0000005b 63       
         0000005c 61       
         0000005d 70       
         0000005e 3A       
         0000005f 20       
         00000060 20       
         00000061 20       
         00000062 20       
         00000063 33       
         00000064 31       
         00000065 36       
         00000066 20       
         00000067 6D       
         00000068 56       
         00000069 0A       
         0000006a 54       
         0000006b 69       
         0000006c 6D       
         0000006d 65       
         0000006e 3A       
         0000006f 20       
         00000070 20       
         00000071 20       
         00000072 20       
     110 00000073 31                .string "18 mS  Vcap:    503 mV",10,"Time:    24 mS  Vcap:    680 mV"
         00000074 38       
         00000075 20       
         00000076 6D       
         00000077 53       
         00000078 20       
         00000079 20       
         0000007a 56       
         0000007b 63       
         0000007c 61       
TI ARM Assembler PC v15.12.1 Mon Nov 07 14:39:08 2016

Tools Copyright (c) 1996-2015 Texas Instruments Incorporated
Task_Trivial.asm                                                     PAGE    5

         0000007d 70       
         0000007e 3A       
         0000007f 20       
         00000080 20       
         00000081 20       
         00000082 20       
         00000083 35       
         00000084 30       
         00000085 33       
         00000086 20       
         00000087 6D       
         00000088 56       
         00000089 0A       
         0000008a 54       
         0000008b 69       
         0000008c 6D       
         0000008d 65       
         0000008e 3A       
         0000008f 20       
         00000090 20       
         00000091 20       
         00000092 20       
         00000093 32       
         00000094 34       
         00000095 20       
         00000096 6D       
         00000097 53       
         00000098 20       
         00000099 20       
         0000009a 56       
         0000009b 63       
         0000009c 61       
         0000009d 70       
         0000009e 3A       
         0000009f 20       
         000000a0 20       
         000000a1 20       
         000000a2 20       
         000000a3 36       
         000000a4 38       
         000000a5 30       
         000000a6 20       
         000000a7 6D       
         000000a8 56       
     111 000000a9 0A                .string 10,"Time:    30 mS  Vcap:    841 mV",10,"Time:    36 mS  Vca"
         000000aa 54       
         000000ab 69       
         000000ac 6D       
         000000ad 65       
         000000ae 3A       
         000000af 20       
         000000b0 20       
         000000b1 20       
         000000b2 20       
         000000b3 33       
TI ARM Assembler PC v15.12.1 Mon Nov 07 14:39:08 2016

Tools Copyright (c) 1996-2015 Texas Instruments Incorporated
Task_Trivial.asm                                                     PAGE    6

         000000b4 30       
         000000b5 20       
         000000b6 6D       
         000000b7 53       
         000000b8 20       
         000000b9 20       
         000000ba 56       
         000000bb 63       
         000000bc 61       
         000000bd 70       
         000000be 3A       
         000000bf 20       
         000000c0 20       
         000000c1 20       
         000000c2 20       
         000000c3 38       
         000000c4 34       
         000000c5 31       
         000000c6 20       
         000000c7 6D       
         000000c8 56       
         000000c9 0A       
         000000ca 54       
         000000cb 69       
         000000cc 6D       
         000000cd 65       
         000000ce 3A       
         000000cf 20       
         000000d0 20       
         000000d1 20       
         000000d2 20       
         000000d3 33       
         000000d4 36       
         000000d5 20       
         000000d6 6D       
         000000d7 53       
         000000d8 20       
         000000d9 20       
         000000da 56       
         000000db 63       
         000000dc 61       
     112 000000dd 70                .string "p:    1000 mV",10,"Time:    42 mS  Vcap:    1148 mV",10,"Ti"
         000000de 3A       
         000000df 20       
         000000e0 20       
         000000e1 20       
         000000e2 20       
         000000e3 31       
         000000e4 30       
         000000e5 30       
         000000e6 30       
         000000e7 20       
         000000e8 6D       
         000000e9 56       
         000000ea 0A       
TI ARM Assembler PC v15.12.1 Mon Nov 07 14:39:08 2016

Tools Copyright (c) 1996-2015 Texas Instruments Incorporated
Task_Trivial.asm                                                     PAGE    7

         000000eb 54       
         000000ec 69       
         000000ed 6D       
         000000ee 65       
         000000ef 3A       
         000000f0 20       
         000000f1 20       
         000000f2 20       
         000000f3 20       
         000000f4 34       
         000000f5 32       
         000000f6 20       
         000000f7 6D       
         000000f8 53       
         000000f9 20       
         000000fa 20       
         000000fb 56       
         000000fc 63       
         000000fd 61       
         000000fe 70       
         000000ff 3A       
         00000100 20       
         00000101 20       
         00000102 20       
         00000103 20       
         00000104 31       
         00000105 31       
         00000106 34       
         00000107 38       
         00000108 20       
         00000109 6D       
         0000010a 56       
         0000010b 0A       
         0000010c 54       
         0000010d 69       
     113 0000010e 6D                .string "me:    48 mS  Vcap:    1290 mV",10,"Time:    54 mS  Vcap:  "
         0000010f 65       
         00000110 3A       
         00000111 20       
         00000112 20       
         00000113 20       
         00000114 20       
         00000115 34       
         00000116 38       
         00000117 20       
         00000118 6D       
         00000119 53       
         0000011a 20       
         0000011b 20       
         0000011c 56       
         0000011d 63       
         0000011e 61       
         0000011f 70       
         00000120 3A       
         00000121 20       
TI ARM Assembler PC v15.12.1 Mon Nov 07 14:39:08 2016

Tools Copyright (c) 1996-2015 Texas Instruments Incorporated
Task_Trivial.asm                                                     PAGE    8

         00000122 20       
         00000123 20       
         00000124 20       
         00000125 31       
         00000126 32       
         00000127 39       
         00000128 30       
         00000129 20       
         0000012a 6D       
         0000012b 56       
         0000012c 0A       
         0000012d 54       
         0000012e 69       
         0000012f 6D       
         00000130 65       
         00000131 3A       
         00000132 20       
         00000133 20       
         00000134 20       
         00000135 20       
         00000136 35       
         00000137 34       
         00000138 20       
         00000139 6D       
         0000013a 53       
         0000013b 20       
         0000013c 20       
         0000013d 56       
         0000013e 63       
         0000013f 61       
         00000140 70       
         00000141 3A       
         00000142 20       
         00000143 20       
     114 00000144 20                .string "  1422 mV",10,"Time:    60 mS  Vcap:    1545 mV",10,"Time: "
         00000145 20       
         00000146 31       
         00000147 34       
         00000148 32       
         00000149 32       
         0000014a 20       
         0000014b 6D       
         0000014c 56       
         0000014d 0A       
         0000014e 54       
         0000014f 69       
         00000150 6D       
         00000151 65       
         00000152 3A       
         00000153 20       
         00000154 20       
         00000155 20       
         00000156 20       
         00000157 36       
         00000158 30       
TI ARM Assembler PC v15.12.1 Mon Nov 07 14:39:08 2016

Tools Copyright (c) 1996-2015 Texas Instruments Incorporated
Task_Trivial.asm                                                     PAGE    9

         00000159 20       
         0000015a 6D       
         0000015b 53       
         0000015c 20       
         0000015d 20       
         0000015e 56       
         0000015f 63       
         00000160 61       
         00000161 70       
         00000162 3A       
         00000163 20       
         00000164 20       
         00000165 20       
         00000166 20       
         00000167 31       
         00000168 35       
         00000169 34       
         0000016a 35       
         0000016b 20       
         0000016c 6D       
         0000016d 56       
         0000016e 0A       
         0000016f 54       
         00000170 69       
         00000171 6D       
         00000172 65       
         00000173 3A       
         00000174 20       
     115 00000175 20                .string "   66 mS  Vcap:    1667 mV",10,"Time:    72 mS  Vcap:    17"
         00000176 20       
         00000177 20       
         00000178 36       
         00000179 36       
         0000017a 20       
         0000017b 6D       
         0000017c 53       
         0000017d 20       
         0000017e 20       
         0000017f 56       
         00000180 63       
         00000181 61       
         00000182 70       
         00000183 3A       
         00000184 20       
         00000185 20       
         00000186 20       
         00000187 20       
         00000188 31       
         00000189 36       
         0000018a 36       
         0000018b 37       
         0000018c 20       
         0000018d 6D       
         0000018e 56       
         0000018f 0A       
TI ARM Assembler PC v15.12.1 Mon Nov 07 14:39:08 2016

Tools Copyright (c) 1996-2015 Texas Instruments Incorporated
Task_Trivial.asm                                                     PAGE   10

         00000190 54       
         00000191 69       
         00000192 6D       
         00000193 65       
         00000194 3A       
         00000195 20       
         00000196 20       
         00000197 20       
         00000198 20       
         00000199 37       
         0000019a 32       
         0000019b 20       
         0000019c 6D       
         0000019d 53       
         0000019e 20       
         0000019f 20       
         000001a0 56       
         000001a1 63       
         000001a2 61       
         000001a3 70       
         000001a4 3A       
         000001a5 20       
         000001a6 20       
         000001a7 20       
         000001a8 20       
         000001a9 31       
         000001aa 37       
     116 000001ab 37                .string "74 mV",10,"Time:    78 mS  Vcap:    1880 mV",10,"Time:    8"
         000001ac 34       
         000001ad 20       
         000001ae 6D       
         000001af 56       
         000001b0 0A       
         000001b1 54       
         000001b2 69       
         000001b3 6D       
         000001b4 65       
         000001b5 3A       
         000001b6 20       
         000001b7 20       
         000001b8 20       
         000001b9 20       
         000001ba 37       
         000001bb 38       
         000001bc 20       
         000001bd 6D       
         000001be 53       
         000001bf 20       
         000001c0 20       
         000001c1 56       
         000001c2 63       
         000001c3 61       
         000001c4 70       
         000001c5 3A       
         000001c6 20       
TI ARM Assembler PC v15.12.1 Mon Nov 07 14:39:08 2016

Tools Copyright (c) 1996-2015 Texas Instruments Incorporated
Task_Trivial.asm                                                     PAGE   11

         000001c7 20       
         000001c8 20       
         000001c9 20       
         000001ca 31       
         000001cb 38       
         000001cc 38       
         000001cd 30       
         000001ce 20       
         000001cf 6D       
         000001d0 56       
         000001d1 0A       
         000001d2 54       
         000001d3 69       
         000001d4 6D       
         000001d5 65       
         000001d6 3A       
         000001d7 20       
         000001d8 20       
         000001d9 20       
         000001da 20       
         000001db 38       
     117 000001dc 34                .string "4 mS  Vcap:    1980 mV",10,"Time:    90 mS  Vcap:    2074 m"
         000001dd 20       
         000001de 6D       
         000001df 53       
         000001e0 20       
         000001e1 20       
         000001e2 56       
         000001e3 63       
         000001e4 61       
         000001e5 70       
         000001e6 3A       
         000001e7 20       
         000001e8 20       
         000001e9 20       
         000001ea 20       
         000001eb 31       
         000001ec 39       
         000001ed 38       
         000001ee 30       
         000001ef 20       
         000001f0 6D       
         000001f1 56       
         000001f2 0A       
         000001f3 54       
         000001f4 69       
         000001f5 6D       
         000001f6 65       
         000001f7 3A       
         000001f8 20       
         000001f9 20       
         000001fa 20       
         000001fb 20       
         000001fc 39       
         000001fd 30       
TI ARM Assembler PC v15.12.1 Mon Nov 07 14:39:08 2016

Tools Copyright (c) 1996-2015 Texas Instruments Incorporated
Task_Trivial.asm                                                     PAGE   12

         000001fe 20       
         000001ff 6D       
         00000200 53       
         00000201 20       
         00000202 20       
         00000203 56       
         00000204 63       
         00000205 61       
         00000206 70       
         00000207 3A       
         00000208 20       
         00000209 20       
         0000020a 20       
         0000020b 20       
         0000020c 32       
         0000020d 30       
         0000020e 37       
         0000020f 34       
         00000210 20       
         00000211 6D       
     118 00000212 56                .string "V",10,"Time:    96 mS  Vcap:    2158 mV",10,"Time:    102 m"
         00000213 0A       
         00000214 54       
         00000215 69       
         00000216 6D       
         00000217 65       
         00000218 3A       
         00000219 20       
         0000021a 20       
         0000021b 20       
         0000021c 20       
         0000021d 39       
         0000021e 36       
         0000021f 20       
         00000220 6D       
         00000221 53       
         00000222 20       
         00000223 20       
         00000224 56       
         00000225 63       
         00000226 61       
         00000227 70       
         00000228 3A       
         00000229 20       
         0000022a 20       
         0000022b 20       
         0000022c 20       
         0000022d 32       
         0000022e 31       
         0000022f 35       
         00000230 38       
         00000231 20       
         00000232 6D       
         00000233 56       
         00000234 0A       
TI ARM Assembler PC v15.12.1 Mon Nov 07 14:39:08 2016

Tools Copyright (c) 1996-2015 Texas Instruments Incorporated
Task_Trivial.asm                                                     PAGE   13

         00000235 54       
         00000236 69       
         00000237 6D       
         00000238 65       
         00000239 3A       
         0000023a 20       
         0000023b 20       
         0000023c 20       
         0000023d 20       
         0000023e 31       
         0000023f 30       
         00000240 32       
         00000241 20       
         00000242 6D       
     119 00000243 53                .string "S  Vcap:   2238 mV",10,"Time:    108 mS  Vcap:   2319 mV",10
         00000244 20       
         00000245 20       
         00000246 56       
         00000247 63       
         00000248 61       
         00000249 70       
         0000024a 3A       
         0000024b 20       
         0000024c 20       
         0000024d 20       
         0000024e 32       
         0000024f 32       
         00000250 33       
         00000251 38       
         00000252 20       
         00000253 6D       
         00000254 56       
         00000255 0A       
         00000256 54       
         00000257 69       
         00000258 6D       
         00000259 65       
         0000025a 3A       
         0000025b 20       
         0000025c 20       
         0000025d 20       
         0000025e 20       
         0000025f 31       
         00000260 30       
         00000261 38       
         00000262 20       
         00000263 6D       
         00000264 53       
         00000265 20       
         00000266 20       
         00000267 56       
         00000268 63       
         00000269 61       
         0000026a 70       
         0000026b 3A       
TI ARM Assembler PC v15.12.1 Mon Nov 07 14:39:08 2016

Tools Copyright (c) 1996-2015 Texas Instruments Incorporated
Task_Trivial.asm                                                     PAGE   14

         0000026c 20       
         0000026d 20       
         0000026e 20       
         0000026f 32       
         00000270 33       
         00000271 31       
         00000272 39       
         00000273 20       
         00000274 6D       
         00000275 56       
         00000276 0A       
     120 00000277 54                .string "Time:    114 mS  Vcap:   2390 mV",10,"Time:    120 mS  Vcap"
         00000278 69       
         00000279 6D       
         0000027a 65       
         0000027b 3A       
         0000027c 20       
         0000027d 20       
         0000027e 20       
         0000027f 20       
         00000280 31       
         00000281 31       
         00000282 34       
         00000283 20       
         00000284 6D       
         00000285 53       
         00000286 20       
         00000287 20       
         00000288 56       
         00000289 63       
         0000028a 61       
         0000028b 70       
         0000028c 3A       
         0000028d 20       
         0000028e 20       
         0000028f 20       
         00000290 32       
         00000291 33       
         00000292 39       
         00000293 30       
         00000294 20       
         00000295 6D       
         00000296 56       
         00000297 0A       
         00000298 54       
         00000299 69       
         0000029a 6D       
         0000029b 65       
         0000029c 3A       
         0000029d 20       
         0000029e 20       
         0000029f 20       
         000002a0 20       
         000002a1 31       
         000002a2 32       
TI ARM Assembler PC v15.12.1 Mon Nov 07 14:39:08 2016

Tools Copyright (c) 1996-2015 Texas Instruments Incorporated
Task_Trivial.asm                                                     PAGE   15

         000002a3 30       
         000002a4 20       
         000002a5 6D       
         000002a6 53       
         000002a7 20       
         000002a8 20       
         000002a9 56       
         000002aa 63       
         000002ab 61       
         000002ac 70       
     121 000002ad 3A                .string ":   2461 mV",10,"Time:    126 mS  Vcap:   2522 mV",10,"Time"
         000002ae 20       
         000002af 20       
         000002b0 20       
         000002b1 32       
         000002b2 34       
         000002b3 36       
         000002b4 31       
         000002b5 20       
         000002b6 6D       
         000002b7 56       
         000002b8 0A       
         000002b9 54       
         000002ba 69       
         000002bb 6D       
         000002bc 65       
         000002bd 3A       
         000002be 20       
         000002bf 20       
         000002c0 20       
         000002c1 20       
         000002c2 31       
         000002c3 32       
         000002c4 36       
         000002c5 20       
         000002c6 6D       
         000002c7 53       
         000002c8 20       
         000002c9 20       
         000002ca 56       
         000002cb 63       
         000002cc 61       
         000002cd 70       
         000002ce 3A       
         000002cf 20       
         000002d0 20       
         000002d1 20       
         000002d2 32       
         000002d3 35       
         000002d4 32       
         000002d5 32       
         000002d6 20       
         000002d7 6D       
         000002d8 56       
         000002d9 0A       
TI ARM Assembler PC v15.12.1 Mon Nov 07 14:39:08 2016

Tools Copyright (c) 1996-2015 Texas Instruments Incorporated
Task_Trivial.asm                                                     PAGE   16

         000002da 54       
         000002db 69       
         000002dc 6D       
         000002dd 65       
     122 000002de 3A                .string ":    132 mS  Vcap:   2587 mV",10,"Time:    138 mS  Vcap:   "
         000002df 20       
         000002e0 20       
         000002e1 20       
         000002e2 20       
         000002e3 31       
         000002e4 33       
         000002e5 32       
         000002e6 20       
         000002e7 6D       
         000002e8 53       
         000002e9 20       
         000002ea 20       
         000002eb 56       
         000002ec 63       
         000002ed 61       
         000002ee 70       
         000002ef 3A       
         000002f0 20       
         000002f1 20       
         000002f2 20       
         000002f3 32       
         000002f4 35       
         000002f5 38       
         000002f6 37       
         000002f7 20       
         000002f8 6D       
         000002f9 56       
         000002fa 0A       
         000002fb 54       
         000002fc 69       
         000002fd 6D       
         000002fe 65       
         000002ff 3A       
         00000300 20       
         00000301 20       
         00000302 20       
         00000303 20       
         00000304 31       
         00000305 33       
         00000306 38       
         00000307 20       
         00000308 6D       
         00000309 53       
         0000030a 20       
         0000030b 20       
         0000030c 56       
         0000030d 63       
         0000030e 61       
         0000030f 70       
         00000310 3A       
TI ARM Assembler PC v15.12.1 Mon Nov 07 14:39:08 2016

Tools Copyright (c) 1996-2015 Texas Instruments Incorporated
Task_Trivial.asm                                                     PAGE   17

         00000311 20       
         00000312 20       
         00000313 20       
     123 00000314 32                .string "2641 mV",10,"Time:    144 mS  Vcap:   2696 mV",10,"Time:   "
         00000315 36       
         00000316 34       
         00000317 31       
         00000318 20       
         00000319 6D       
         0000031a 56       
         0000031b 0A       
         0000031c 54       
         0000031d 69       
         0000031e 6D       
         0000031f 65       
         00000320 3A       
         00000321 20       
         00000322 20       
         00000323 20       
         00000324 20       
         00000325 31       
         00000326 34       
         00000327 34       
         00000328 20       
         00000329 6D       
         0000032a 53       
         0000032b 20       
         0000032c 20       
         0000032d 56       
         0000032e 63       
         0000032f 61       
         00000330 70       
         00000331 3A       
         00000332 20       
         00000333 20       
         00000334 20       
         00000335 32       
         00000336 36       
         00000337 39       
         00000338 36       
         00000339 20       
         0000033a 6D       
         0000033b 56       
         0000033c 0A       
         0000033d 54       
         0000033e 69       
         0000033f 6D       
         00000340 65       
         00000341 3A       
         00000342 20       
         00000343 20       
         00000344 20       
     124 00000345 20                .string " 150 mS  Vcap:   2751 mV",10,"Time:    156 mS  Vcap:   2796"
         00000346 31       
         00000347 35       
TI ARM Assembler PC v15.12.1 Mon Nov 07 14:39:08 2016

Tools Copyright (c) 1996-2015 Texas Instruments Incorporated
Task_Trivial.asm                                                     PAGE   18

         00000348 30       
         00000349 20       
         0000034a 6D       
         0000034b 53       
         0000034c 20       
         0000034d 20       
         0000034e 56       
         0000034f 63       
         00000350 61       
         00000351 70       
         00000352 3A       
         00000353 20       
         00000354 20       
         00000355 20       
         00000356 32       
         00000357 37       
         00000358 35       
         00000359 31       
         0000035a 20       
         0000035b 6D       
         0000035c 56       
         0000035d 0A       
         0000035e 54       
         0000035f 69       
         00000360 6D       
         00000361 65       
         00000362 3A       
         00000363 20       
         00000364 20       
         00000365 20       
         00000366 20       
         00000367 31       
         00000368 35       
         00000369 36       
         0000036a 20       
         0000036b 6D       
         0000036c 53       
         0000036d 20       
         0000036e 20       
         0000036f 56       
         00000370 63       
         00000371 61       
         00000372 70       
         00000373 3A       
         00000374 20       
         00000375 20       
         00000376 20       
         00000377 32       
         00000378 37       
         00000379 39       
         0000037a 36       
     125 0000037b 20                .string " mV",10,"Time:    162 mS  Vcap:   2848 mV",10,"Time:    168"
         0000037c 6D       
         0000037d 56       
         0000037e 0A       
TI ARM Assembler PC v15.12.1 Mon Nov 07 14:39:08 2016

Tools Copyright (c) 1996-2015 Texas Instruments Incorporated
Task_Trivial.asm                                                     PAGE   19

         0000037f 54       
         00000380 69       
         00000381 6D       
         00000382 65       
         00000383 3A       
         00000384 20       
         00000385 20       
         00000386 20       
         00000387 20       
         00000388 31       
         00000389 36       
         0000038a 32       
         0000038b 20       
         0000038c 6D       
         0000038d 53       
         0000038e 20       
         0000038f 20       
         00000390 56       
         00000391 63       
         00000392 61       
         00000393 70       
         00000394 3A       
         00000395 20       
         00000396 20       
         00000397 20       
         00000398 32       
         00000399 38       
         0000039a 34       
         0000039b 38       
         0000039c 20       
         0000039d 6D       
         0000039e 56       
         0000039f 0A       
         000003a0 54       
         000003a1 69       
         000003a2 6D       
         000003a3 65       
         000003a4 3A       
         000003a5 20       
         000003a6 20       
         000003a7 20       
         000003a8 20       
         000003a9 31       
         000003aa 36       
         000003ab 38       
     126 000003ac 20                .string " mS  Vcap:   2890 mV",10,"Time:    174 mS  Vcap:   2929 mV",10
         000003ad 6D       
         000003ae 53       
         000003af 20       
         000003b0 20       
         000003b1 56       
         000003b2 63       
         000003b3 61       
         000003b4 70       
         000003b5 3A       
TI ARM Assembler PC v15.12.1 Mon Nov 07 14:39:08 2016

Tools Copyright (c) 1996-2015 Texas Instruments Incorporated
Task_Trivial.asm                                                     PAGE   20

         000003b6 20       
         000003b7 20       
         000003b8 20       
         000003b9 32       
         000003ba 38       
         000003bb 39       
         000003bc 30       
         000003bd 20       
         000003be 6D       
         000003bf 56       
         000003c0 0A       
         000003c1 54       
         000003c2 69       
         000003c3 6D       
         000003c4 65       
         000003c5 3A       
         000003c6 20       
         000003c7 20       
         000003c8 20       
         000003c9 20       
         000003ca 31       
         000003cb 37       
         000003cc 34       
         000003cd 20       
         000003ce 6D       
         000003cf 53       
         000003d0 20       
         000003d1 20       
         000003d2 56       
         000003d3 63       
         000003d4 61       
         000003d5 70       
         000003d6 3A       
         000003d7 20       
         000003d8 20       
         000003d9 20       
         000003da 32       
         000003db 39       
         000003dc 32       
         000003dd 39       
         000003de 20       
         000003df 6D       
         000003e0 56       
         000003e1 0A       
     127 000003e2 54                .string "Time:    180 mS  Vcap:   2967 mV",10,"Time:    186 mS  Vcap"
         000003e3 69       
         000003e4 6D       
         000003e5 65       
         000003e6 3A       
         000003e7 20       
         000003e8 20       
         000003e9 20       
         000003ea 20       
         000003eb 31       
         000003ec 38       
TI ARM Assembler PC v15.12.1 Mon Nov 07 14:39:08 2016

Tools Copyright (c) 1996-2015 Texas Instruments Incorporated
Task_Trivial.asm                                                     PAGE   21

         000003ed 30       
         000003ee 20       
         000003ef 6D       
         000003f0 53       
         000003f1 20       
         000003f2 20       
         000003f3 56       
         000003f4 63       
         000003f5 61       
         000003f6 70       
         000003f7 3A       
         000003f8 20       
         000003f9 20       
         000003fa 20       
         000003fb 32       
         000003fc 39       
         000003fd 36       
         000003fe 37       
         000003ff 20       
         00000400 6D       
         00000401 56       
         00000402 0A       
         00000403 54       
         00000404 69       
         00000405 6D       
         00000406 65       
         00000407 3A       
         00000408 20       
         00000409 20       
         0000040a 20       
         0000040b 20       
         0000040c 31       
         0000040d 38       
         0000040e 36       
         0000040f 20       
         00000410 6D       
         00000411 53       
         00000412 20       
         00000413 20       
         00000414 56       
         00000415 63       
         00000416 61       
         00000417 70       
     128 00000418 3A                .string ":   3006 mV",10,"Time:    192 mS  Vcap:   3038 mV",10,"Time"
         00000419 20       
         0000041a 20       
         0000041b 20       
         0000041c 33       
         0000041d 30       
         0000041e 30       
         0000041f 36       
         00000420 20       
         00000421 6D       
         00000422 56       
         00000423 0A       
TI ARM Assembler PC v15.12.1 Mon Nov 07 14:39:08 2016

Tools Copyright (c) 1996-2015 Texas Instruments Incorporated
Task_Trivial.asm                                                     PAGE   22

         00000424 54       
         00000425 69       
         00000426 6D       
         00000427 65       
         00000428 3A       
         00000429 20       
         0000042a 20       
         0000042b 20       
         0000042c 20       
         0000042d 31       
         0000042e 39       
         0000042f 32       
         00000430 20       
         00000431 6D       
         00000432 53       
         00000433 20       
         00000434 20       
         00000435 56       
         00000436 63       
         00000437 61       
         00000438 70       
         00000439 3A       
         0000043a 20       
         0000043b 20       
         0000043c 20       
         0000043d 33       
         0000043e 30       
         0000043f 33       
         00000440 38       
         00000441 20       
         00000442 6D       
         00000443 56       
         00000444 0A       
         00000445 54       
         00000446 69       
         00000447 6D       
         00000448 65       
     129 00000449 3A                .string ":    198 mS  Vcap:   3070 mV",10,"Time:    204 mS  Vcap:   "
         0000044a 20       
         0000044b 20       
         0000044c 20       
         0000044d 20       
         0000044e 31       
         0000044f 39       
         00000450 38       
         00000451 20       
         00000452 6D       
         00000453 53       
         00000454 20       
         00000455 20       
         00000456 56       
         00000457 63       
         00000458 61       
         00000459 70       
         0000045a 3A       
TI ARM Assembler PC v15.12.1 Mon Nov 07 14:39:08 2016

Tools Copyright (c) 1996-2015 Texas Instruments Incorporated
Task_Trivial.asm                                                     PAGE   23

         0000045b 20       
         0000045c 20       
         0000045d 20       
         0000045e 33       
         0000045f 30       
         00000460 37       
         00000461 30       
         00000462 20       
         00000463 6D       
         00000464 56       
         00000465 0A       
         00000466 54       
         00000467 69       
         00000468 6D       
         00000469 65       
         0000046a 3A       
         0000046b 20       
         0000046c 20       
         0000046d 20       
         0000046e 20       
         0000046f 32       
         00000470 30       
         00000471 34       
         00000472 20       
         00000473 6D       
         00000474 53       
         00000475 20       
         00000476 20       
         00000477 56       
         00000478 63       
         00000479 61       
         0000047a 70       
         0000047b 3A       
         0000047c 20       
         0000047d 20       
         0000047e 20       
     130 0000047f 33                .string "3103 mV",10,"Time:    210 mS  Vcap:   3132 mV",10,"Time:   "
         00000480 31       
         00000481 30       
         00000482 33       
         00000483 20       
         00000484 6D       
         00000485 56       
         00000486 0A       
         00000487 54       
         00000488 69       
         00000489 6D       
         0000048a 65       
         0000048b 3A       
         0000048c 20       
         0000048d 20       
         0000048e 20       
         0000048f 20       
         00000490 32       
         00000491 31       
TI ARM Assembler PC v15.12.1 Mon Nov 07 14:39:08 2016

Tools Copyright (c) 1996-2015 Texas Instruments Incorporated
Task_Trivial.asm                                                     PAGE   24

         00000492 30       
         00000493 20       
         00000494 6D       
         00000495 53       
         00000496 20       
         00000497 20       
         00000498 56       
         00000499 63       
         0000049a 61       
         0000049b 70       
         0000049c 3A       
         0000049d 20       
         0000049e 20       
         0000049f 20       
         000004a0 33       
         000004a1 31       
         000004a2 33       
         000004a3 32       
         000004a4 20       
         000004a5 6D       
         000004a6 56       
         000004a7 0A       
         000004a8 54       
         000004a9 69       
         000004aa 6D       
         000004ab 65       
         000004ac 3A       
         000004ad 20       
         000004ae 20       
         000004af 20       
     131 000004b0 20                .string " 216 mS  Vcap:   3161 mV",10,"Time:    222 mS  Vcap:   3187"
         000004b1 32       
         000004b2 31       
         000004b3 36       
         000004b4 20       
         000004b5 6D       
         000004b6 53       
         000004b7 20       
         000004b8 20       
         000004b9 56       
         000004ba 63       
         000004bb 61       
         000004bc 70       
         000004bd 3A       
         000004be 20       
         000004bf 20       
         000004c0 20       
         000004c1 33       
         000004c2 31       
         000004c3 36       
         000004c4 31       
         000004c5 20       
         000004c6 6D       
         000004c7 56       
         000004c8 0A       
TI ARM Assembler PC v15.12.1 Mon Nov 07 14:39:08 2016

Tools Copyright (c) 1996-2015 Texas Instruments Incorporated
Task_Trivial.asm                                                     PAGE   25

         000004c9 54       
         000004ca 69       
         000004cb 6D       
         000004cc 65       
         000004cd 3A       
         000004ce 20       
         000004cf 20       
         000004d0 20       
         000004d1 20       
         000004d2 32       
         000004d3 32       
         000004d4 32       
         000004d5 20       
         000004d6 6D       
         000004d7 53       
         000004d8 20       
         000004d9 20       
         000004da 56       
         000004db 63       
         000004dc 61       
         000004dd 70       
         000004de 3A       
         000004df 20       
         000004e0 20       
         000004e1 20       
         000004e2 33       
         000004e3 31       
         000004e4 38       
         000004e5 37       
     132 000004e6 20                .string " mV",10,"Time:    228 mS  Vcap:   3212 mV",10,"Time:    234"
         000004e7 6D       
         000004e8 56       
         000004e9 0A       
         000004ea 54       
         000004eb 69       
         000004ec 6D       
         000004ed 65       
         000004ee 3A       
         000004ef 20       
         000004f0 20       
         000004f1 20       
         000004f2 20       
         000004f3 32       
         000004f4 32       
         000004f5 38       
         000004f6 20       
         000004f7 6D       
         000004f8 53       
         000004f9 20       
         000004fa 20       
         000004fb 56       
         000004fc 63       
         000004fd 61       
         000004fe 70       
         000004ff 3A       
TI ARM Assembler PC v15.12.1 Mon Nov 07 14:39:08 2016

Tools Copyright (c) 1996-2015 Texas Instruments Incorporated
Task_Trivial.asm                                                     PAGE   26

         00000500 20       
         00000501 20       
         00000502 20       
         00000503 33       
         00000504 32       
         00000505 31       
         00000506 32       
         00000507 20       
         00000508 6D       
         00000509 56       
         0000050a 0A       
         0000050b 54       
         0000050c 69       
         0000050d 6D       
         0000050e 65       
         0000050f 3A       
         00000510 20       
         00000511 20       
         00000512 20       
         00000513 20       
         00000514 32       
         00000515 33       
         00000516 34       
     133 00000517 20                .string " mS  Vcap:   3232 mV",10,"Time:    240 mS  Vcap:   3254 mV",10
         00000518 6D       
         00000519 53       
         0000051a 20       
         0000051b 20       
         0000051c 56       
         0000051d 63       
         0000051e 61       
         0000051f 70       
         00000520 3A       
         00000521 20       
         00000522 20       
         00000523 20       
         00000524 33       
         00000525 32       
         00000526 33       
         00000527 32       
         00000528 20       
         00000529 6D       
         0000052a 56       
         0000052b 0A       
         0000052c 54       
         0000052d 69       
         0000052e 6D       
         0000052f 65       
         00000530 3A       
         00000531 20       
         00000532 20       
         00000533 20       
         00000534 20       
         00000535 32       
         00000536 34       
TI ARM Assembler PC v15.12.1 Mon Nov 07 14:39:08 2016

Tools Copyright (c) 1996-2015 Texas Instruments Incorporated
Task_Trivial.asm                                                     PAGE   27

         00000537 30       
         00000538 20       
         00000539 6D       
         0000053a 53       
         0000053b 20       
         0000053c 20       
         0000053d 56       
         0000053e 63       
         0000053f 61       
         00000540 70       
         00000541 3A       
         00000542 20       
         00000543 20       
         00000544 20       
         00000545 33       
         00000546 32       
         00000547 35       
         00000548 34       
         00000549 20       
         0000054a 6D       
         0000054b 56       
         0000054c 0A       
     134 0000054d 54                .string "Time:    246 mS  Vcap:   3277 mV",10,"Time:    252 mS  Vcap"
         0000054e 69       
         0000054f 6D       
         00000550 65       
         00000551 3A       
         00000552 20       
         00000553 20       
         00000554 20       
         00000555 20       
         00000556 32       
         00000557 34       
         00000558 36       
         00000559 20       
         0000055a 6D       
         0000055b 53       
         0000055c 20       
         0000055d 20       
         0000055e 56       
         0000055f 63       
         00000560 61       
         00000561 70       
         00000562 3A       
         00000563 20       
         00000564 20       
         00000565 20       
         00000566 33       
         00000567 32       
         00000568 37       
         00000569 37       
         0000056a 20       
         0000056b 6D       
         0000056c 56       
         0000056d 0A       
TI ARM Assembler PC v15.12.1 Mon Nov 07 14:39:08 2016

Tools Copyright (c) 1996-2015 Texas Instruments Incorporated
Task_Trivial.asm                                                     PAGE   28

         0000056e 54       
         0000056f 69       
         00000570 6D       
         00000571 65       
         00000572 3A       
         00000573 20       
         00000574 20       
         00000575 20       
         00000576 20       
         00000577 32       
         00000578 35       
         00000579 32       
         0000057a 20       
         0000057b 6D       
         0000057c 53       
         0000057d 20       
         0000057e 20       
         0000057f 56       
         00000580 63       
         00000581 61       
         00000582 70       
     135 00000583 3A                .string ":   3296 mV",10,"Time:    258 mS  Vcap:   3300 mV",10,"Time"
         00000584 20       
         00000585 20       
         00000586 20       
         00000587 33       
         00000588 32       
         00000589 39       
         0000058a 36       
         0000058b 20       
         0000058c 6D       
         0000058d 56       
         0000058e 0A       
         0000058f 54       
         00000590 69       
         00000591 6D       
         00000592 65       
         00000593 3A       
         00000594 20       
         00000595 20       
         00000596 20       
         00000597 20       
         00000598 32       
         00000599 35       
         0000059a 38       
         0000059b 20       
         0000059c 6D       
         0000059d 53       
         0000059e 20       
         0000059f 20       
         000005a0 56       
         000005a1 63       
         000005a2 61       
         000005a3 70       
         000005a4 3A       
TI ARM Assembler PC v15.12.1 Mon Nov 07 14:39:08 2016

Tools Copyright (c) 1996-2015 Texas Instruments Incorporated
Task_Trivial.asm                                                     PAGE   29

         000005a5 20       
         000005a6 20       
         000005a7 20       
         000005a8 33       
         000005a9 33       
         000005aa 30       
         000005ab 30       
         000005ac 20       
         000005ad 6D       
         000005ae 56       
         000005af 0A       
         000005b0 54       
         000005b1 69       
         000005b2 6D       
         000005b3 65       
     136 000005b4 3A                .string ":    264 mS  Vcap:   3300 mV",10,"Time:    270 mS  Vcap:   "
         000005b5 20       
         000005b6 20       
         000005b7 20       
         000005b8 20       
         000005b9 32       
         000005ba 36       
         000005bb 34       
         000005bc 20       
         000005bd 6D       
         000005be 53       
         000005bf 20       
         000005c0 20       
         000005c1 56       
         000005c2 63       
         000005c3 61       
         000005c4 70       
         000005c5 3A       
         000005c6 20       
         000005c7 20       
         000005c8 20       
         000005c9 33       
         000005ca 33       
         000005cb 30       
         000005cc 30       
         000005cd 20       
         000005ce 6D       
         000005cf 56       
         000005d0 0A       
         000005d1 54       
         000005d2 69       
         000005d3 6D       
         000005d4 65       
         000005d5 3A       
         000005d6 20       
         000005d7 20       
         000005d8 20       
         000005d9 20       
         000005da 32       
         000005db 37       
TI ARM Assembler PC v15.12.1 Mon Nov 07 14:39:08 2016

Tools Copyright (c) 1996-2015 Texas Instruments Incorporated
Task_Trivial.asm                                                     PAGE   30

         000005dc 30       
         000005dd 20       
         000005de 6D       
         000005df 53       
         000005e0 20       
         000005e1 20       
         000005e2 56       
         000005e3 63       
         000005e4 61       
         000005e5 70       
         000005e6 3A       
         000005e7 20       
         000005e8 20       
         000005e9 20       
     137 000005ea 33                .string "3300 mV",10,"Time:    276 mS  Vcap:   3300 mV",10,"Time:   "
         000005eb 33       
         000005ec 30       
         000005ed 30       
         000005ee 20       
         000005ef 6D       
         000005f0 56       
         000005f1 0A       
         000005f2 54       
         000005f3 69       
         000005f4 6D       
         000005f5 65       
         000005f6 3A       
         000005f7 20       
         000005f8 20       
         000005f9 20       
         000005fa 20       
         000005fb 32       
         000005fc 37       
         000005fd 36       
         000005fe 20       
         000005ff 6D       
         00000600 53       
         00000601 20       
         00000602 20       
         00000603 56       
         00000604 63       
         00000605 61       
         00000606 70       
         00000607 3A       
         00000608 20       
         00000609 20       
         0000060a 20       
         0000060b 33       
         0000060c 33       
         0000060d 30       
         0000060e 30       
         0000060f 20       
         00000610 6D       
         00000611 56       
         00000612 0A       
TI ARM Assembler PC v15.12.1 Mon Nov 07 14:39:08 2016

Tools Copyright (c) 1996-2015 Texas Instruments Incorporated
Task_Trivial.asm                                                     PAGE   31

         00000613 54       
         00000614 69       
         00000615 6D       
         00000616 65       
         00000617 3A       
         00000618 20       
         00000619 20       
         0000061a 20       
     138 0000061b 20                .string " 282 mS  Vcap:   3300 mV",10,"Time:    288 mS  Vcap:   3300"
         0000061c 32       
         0000061d 38       
         0000061e 32       
         0000061f 20       
         00000620 6D       
         00000621 53       
         00000622 20       
         00000623 20       
         00000624 56       
         00000625 63       
         00000626 61       
         00000627 70       
         00000628 3A       
         00000629 20       
         0000062a 20       
         0000062b 20       
         0000062c 33       
         0000062d 33       
         0000062e 30       
         0000062f 30       
         00000630 20       
         00000631 6D       
         00000632 56       
         00000633 0A       
         00000634 54       
         00000635 69       
         00000636 6D       
         00000637 65       
         00000638 3A       
         00000639 20       
         0000063a 20       
         0000063b 20       
         0000063c 20       
         0000063d 32       
         0000063e 38       
         0000063f 38       
         00000640 20       
         00000641 6D       
         00000642 53       
         00000643 20       
         00000644 20       
         00000645 56       
         00000646 63       
         00000647 61       
         00000648 70       
         00000649 3A       
TI ARM Assembler PC v15.12.1 Mon Nov 07 14:39:08 2016

Tools Copyright (c) 1996-2015 Texas Instruments Incorporated
Task_Trivial.asm                                                     PAGE   32

         0000064a 20       
         0000064b 20       
         0000064c 20       
         0000064d 33       
         0000064e 33       
         0000064f 30       
         00000650 30       
     139 00000651 20                .string " mV",10,"Time:    294 mS  Vcap:   3300 mV",0
         00000652 6D       
         00000653 56       
         00000654 0A       
         00000655 54       
         00000656 69       
         00000657 6D       
         00000658 65       
         00000659 3A       
         0000065a 20       
         0000065b 20       
         0000065c 20       
         0000065d 20       
         0000065e 32       
         0000065f 39       
         00000660 34       
         00000661 20       
         00000662 6D       
         00000663 53       
         00000664 20       
         00000665 20       
         00000666 56       
         00000667 63       
         00000668 61       
         00000669 70       
         0000066a 3A       
         0000066b 20       
         0000066c 20       
         0000066d 20       
         0000066e 33       
         0000066f 33       
         00000670 30       
         00000671 30       
         00000672 20       
         00000673 6D       
         00000674 56       
         00000675 00       
     140                    ;*****************************************************************************
     141                    ;* UNDEFINED EXTERNAL REFERENCES                                             *
     142                    ;*****************************************************************************
     143                            .global UARTprintf
     144                    
     145                    ;******************************************************************************
     146                    ;* BUILD ATTRIBUTES                                                           *
     147                    ;******************************************************************************
     148                            .battr "aeabi", Tag_File, 1, Tag_ABI_PCS_wchar_t(2)
     149                            .battr "aeabi", Tag_File, 1, Tag_ABI_FP_rounding(0)
     150                            .battr "aeabi", Tag_File, 1, Tag_ABI_FP_denormal(0)
TI ARM Assembler PC v15.12.1 Mon Nov 07 14:39:08 2016

Tools Copyright (c) 1996-2015 Texas Instruments Incorporated
Task_Trivial.asm                                                     PAGE   33

     151                            .battr "aeabi", Tag_File, 1, Tag_ABI_FP_exceptions(0)
     152                            .battr "aeabi", Tag_File, 1, Tag_ABI_FP_number_model(1)
     153                            .battr "aeabi", Tag_File, 1, Tag_ABI_enum_size(1)
     154                            .battr "aeabi", Tag_File, 1, Tag_ABI_optimization_goals(5)
     155                            .battr "aeabi", Tag_File, 1, Tag_ABI_FP_optimization_goals(0)
     156                            .battr "TI", Tag_File, 1, Tag_Bitfield_layout(2)
     157                            .battr "TI", Tag_File, 1, Tag_FP_interface(1)
     158                    
     159                    ;******************************************************************************
     160                    ;* TYPE INFORMATION                                                           *
     161                    ;******************************************************************************
     162                    
     163                    $C$DW$T$51      .dwtag  DW_TAG_enumeration_type
     164                            .dwattr $C$DW$T$51, DW_AT_byte_size(0x01)
     165                    $C$DW$9 .dwtag  DW_TAG_enumerator
     166                            .dwattr $C$DW$9, DW_AT_name("eRunning")
     167                            .dwattr $C$DW$9, DW_AT_const_value(0x00)
     168                            .dwattr $C$DW$9, DW_AT_decl_file("H:/EECS_388/TI_ARM_Projects/FreeRTOS823_LM3S1968_ADC_MultMea
     169                            .dwattr $C$DW$9, DW_AT_decl_line(0x72)
     170                            .dwattr $C$DW$9, DW_AT_decl_column(0x02)
     171                    
     172                    $C$DW$10        .dwtag  DW_TAG_enumerator
     173                            .dwattr $C$DW$10, DW_AT_name("eReady")
     174                            .dwattr $C$DW$10, DW_AT_const_value(0x01)
     175                            .dwattr $C$DW$10, DW_AT_decl_file("H:/EECS_388/TI_ARM_Projects/FreeRTOS823_LM3S1968_ADC_MultMe
     176                            .dwattr $C$DW$10, DW_AT_decl_line(0x73)
     177                            .dwattr $C$DW$10, DW_AT_decl_column(0x02)
     178                    
     179                    $C$DW$11        .dwtag  DW_TAG_enumerator
     180                            .dwattr $C$DW$11, DW_AT_name("eBlocked")
     181                            .dwattr $C$DW$11, DW_AT_const_value(0x02)
     182                            .dwattr $C$DW$11, DW_AT_decl_file("H:/EECS_388/TI_ARM_Projects/FreeRTOS823_LM3S1968_ADC_MultMe
     183                            .dwattr $C$DW$11, DW_AT_decl_line(0x74)
     184                            .dwattr $C$DW$11, DW_AT_decl_column(0x02)
     185                    
     186                    $C$DW$12        .dwtag  DW_TAG_enumerator
     187                            .dwattr $C$DW$12, DW_AT_name("eSuspended")
     188                            .dwattr $C$DW$12, DW_AT_const_value(0x03)
     189                            .dwattr $C$DW$12, DW_AT_decl_file("H:/EECS_388/TI_ARM_Projects/FreeRTOS823_LM3S1968_ADC_MultMe
     190                            .dwattr $C$DW$12, DW_AT_decl_line(0x75)
     191                            .dwattr $C$DW$12, DW_AT_decl_column(0x02)
     192                    
     193                    $C$DW$13        .dwtag  DW_TAG_enumerator
     194                            .dwattr $C$DW$13, DW_AT_name("eDeleted")
     195                            .dwattr $C$DW$13, DW_AT_const_value(0x04)
     196                            .dwattr $C$DW$13, DW_AT_decl_file("H:/EECS_388/TI_ARM_Projects/FreeRTOS823_LM3S1968_ADC_MultMe
     197                            .dwattr $C$DW$13, DW_AT_decl_line(0x76)
     198                            .dwattr $C$DW$13, DW_AT_decl_column(0x02)
     199                    
     200                            .dwattr $C$DW$T$51, DW_AT_decl_file("H:/EECS_388/TI_ARM_Projects/FreeRTOS823_LM3S1968_ADC_Mult
     201                            .dwattr $C$DW$T$51, DW_AT_decl_line(0x71)
     202                            .dwattr $C$DW$T$51, DW_AT_decl_column(0x01)
     203                            .dwendtag $C$DW$T$51
     204                    
     205                    $C$DW$T$52      .dwtag  DW_TAG_typedef
TI ARM Assembler PC v15.12.1 Mon Nov 07 14:39:08 2016

Tools Copyright (c) 1996-2015 Texas Instruments Incorporated
Task_Trivial.asm                                                     PAGE   34

     206                            .dwattr $C$DW$T$52, DW_AT_name("eTaskState")
     207                            .dwattr $C$DW$T$52, DW_AT_type(*$C$DW$T$51)
     208                            .dwattr $C$DW$T$52, DW_AT_language(DW_LANG_C)
     209                            .dwattr $C$DW$T$52, DW_AT_decl_file("H:/EECS_388/TI_ARM_Projects/FreeRTOS823_LM3S1968_ADC_Mult
     210                            .dwattr $C$DW$T$52, DW_AT_decl_line(0x77)
     211                            .dwattr $C$DW$T$52, DW_AT_decl_column(0x03)
     212                    
     213                    
     214                    $C$DW$T$57      .dwtag  DW_TAG_enumeration_type
     215                            .dwattr $C$DW$T$57, DW_AT_byte_size(0x01)
     216                    $C$DW$14        .dwtag  DW_TAG_enumerator
     217                            .dwattr $C$DW$14, DW_AT_name("eNoAction")
     218                            .dwattr $C$DW$14, DW_AT_const_value(0x00)
     219                            .dwattr $C$DW$14, DW_AT_decl_file("H:/EECS_388/TI_ARM_Projects/FreeRTOS823_LM3S1968_ADC_MultMe
     220                            .dwattr $C$DW$14, DW_AT_decl_line(0x7c)
     221                            .dwattr $C$DW$14, DW_AT_decl_column(0x02)
     222                    
     223                    $C$DW$15        .dwtag  DW_TAG_enumerator
     224                            .dwattr $C$DW$15, DW_AT_name("eSetBits")
     225                            .dwattr $C$DW$15, DW_AT_const_value(0x01)
     226                            .dwattr $C$DW$15, DW_AT_decl_file("H:/EECS_388/TI_ARM_Projects/FreeRTOS823_LM3S1968_ADC_MultMe
     227                            .dwattr $C$DW$15, DW_AT_decl_line(0x7d)
     228                            .dwattr $C$DW$15, DW_AT_decl_column(0x02)
     229                    
     230                    $C$DW$16        .dwtag  DW_TAG_enumerator
     231                            .dwattr $C$DW$16, DW_AT_name("eIncrement")
     232                            .dwattr $C$DW$16, DW_AT_const_value(0x02)
     233                            .dwattr $C$DW$16, DW_AT_decl_file("H:/EECS_388/TI_ARM_Projects/FreeRTOS823_LM3S1968_ADC_MultMe
     234                            .dwattr $C$DW$16, DW_AT_decl_line(0x7e)
     235                            .dwattr $C$DW$16, DW_AT_decl_column(0x02)
     236                    
     237                    $C$DW$17        .dwtag  DW_TAG_enumerator
     238                            .dwattr $C$DW$17, DW_AT_name("eSetValueWithOverwrite")
     239                            .dwattr $C$DW$17, DW_AT_const_value(0x03)
     240                            .dwattr $C$DW$17, DW_AT_decl_file("H:/EECS_388/TI_ARM_Projects/FreeRTOS823_LM3S1968_ADC_MultMe
     241                            .dwattr $C$DW$17, DW_AT_decl_line(0x7f)
     242                            .dwattr $C$DW$17, DW_AT_decl_column(0x02)
     243                    
     244                    $C$DW$18        .dwtag  DW_TAG_enumerator
     245                            .dwattr $C$DW$18, DW_AT_name("eSetValueWithoutOverwrite")
     246                            .dwattr $C$DW$18, DW_AT_const_value(0x04)
     247                            .dwattr $C$DW$18, DW_AT_decl_file("H:/EECS_388/TI_ARM_Projects/FreeRTOS823_LM3S1968_ADC_MultMe
     248                            .dwattr $C$DW$18, DW_AT_decl_line(0x80)
     249                            .dwattr $C$DW$18, DW_AT_decl_column(0x02)
     250                    
     251                            .dwattr $C$DW$T$57, DW_AT_decl_file("H:/EECS_388/TI_ARM_Projects/FreeRTOS823_LM3S1968_ADC_Mult
     252                            .dwattr $C$DW$T$57, DW_AT_decl_line(0x7b)
     253                            .dwattr $C$DW$T$57, DW_AT_decl_column(0x01)
     254                            .dwendtag $C$DW$T$57
     255                    
     256                    $C$DW$T$58      .dwtag  DW_TAG_typedef
     257                            .dwattr $C$DW$T$58, DW_AT_name("eNotifyAction")
     258                            .dwattr $C$DW$T$58, DW_AT_type(*$C$DW$T$57)
     259                            .dwattr $C$DW$T$58, DW_AT_language(DW_LANG_C)
     260                            .dwattr $C$DW$T$58, DW_AT_decl_file("H:/EECS_388/TI_ARM_Projects/FreeRTOS823_LM3S1968_ADC_Mult
TI ARM Assembler PC v15.12.1 Mon Nov 07 14:39:08 2016

Tools Copyright (c) 1996-2015 Texas Instruments Incorporated
Task_Trivial.asm                                                     PAGE   35

     261                            .dwattr $C$DW$T$58, DW_AT_decl_line(0x81)
     262                            .dwattr $C$DW$T$58, DW_AT_decl_column(0x03)
     263                    
     264                    
     265                    $C$DW$T$59      .dwtag  DW_TAG_enumeration_type
     266                            .dwattr $C$DW$T$59, DW_AT_byte_size(0x01)
     267                    $C$DW$19        .dwtag  DW_TAG_enumerator
     268                            .dwattr $C$DW$19, DW_AT_name("eAbortSleep")
     269                            .dwattr $C$DW$19, DW_AT_const_value(0x00)
     270                            .dwattr $C$DW$19, DW_AT_decl_file("H:/EECS_388/TI_ARM_Projects/FreeRTOS823_LM3S1968_ADC_MultMe
     271                            .dwattr $C$DW$19, DW_AT_decl_line(0xb5)
     272                            .dwattr $C$DW$19, DW_AT_decl_column(0x02)
     273                    
     274                    $C$DW$20        .dwtag  DW_TAG_enumerator
     275                            .dwattr $C$DW$20, DW_AT_name("eStandardSleep")
     276                            .dwattr $C$DW$20, DW_AT_const_value(0x01)
     277                            .dwattr $C$DW$20, DW_AT_decl_file("H:/EECS_388/TI_ARM_Projects/FreeRTOS823_LM3S1968_ADC_MultMe
     278                            .dwattr $C$DW$20, DW_AT_decl_line(0xb6)
     279                            .dwattr $C$DW$20, DW_AT_decl_column(0x02)
     280                    
     281                    $C$DW$21        .dwtag  DW_TAG_enumerator
     282                            .dwattr $C$DW$21, DW_AT_name("eNoTasksWaitingTimeout")
     283                            .dwattr $C$DW$21, DW_AT_const_value(0x02)
     284                            .dwattr $C$DW$21, DW_AT_decl_file("H:/EECS_388/TI_ARM_Projects/FreeRTOS823_LM3S1968_ADC_MultMe
     285                            .dwattr $C$DW$21, DW_AT_decl_line(0xb7)
     286                            .dwattr $C$DW$21, DW_AT_decl_column(0x02)
     287                    
     288                            .dwattr $C$DW$T$59, DW_AT_decl_file("H:/EECS_388/TI_ARM_Projects/FreeRTOS823_LM3S1968_ADC_Mult
     289                            .dwattr $C$DW$T$59, DW_AT_decl_line(0xb4)
     290                            .dwattr $C$DW$T$59, DW_AT_decl_column(0x01)
     291                            .dwendtag $C$DW$T$59
     292                    
     293                    $C$DW$T$60      .dwtag  DW_TAG_typedef
     294                            .dwattr $C$DW$T$60, DW_AT_name("eSleepModeStatus")
     295                            .dwattr $C$DW$T$60, DW_AT_type(*$C$DW$T$59)
     296                            .dwattr $C$DW$T$60, DW_AT_language(DW_LANG_C)
     297                            .dwattr $C$DW$T$60, DW_AT_decl_file("H:/EECS_388/TI_ARM_Projects/FreeRTOS823_LM3S1968_ADC_Mult
     298                            .dwattr $C$DW$T$60, DW_AT_decl_line(0xb8)
     299                            .dwattr $C$DW$T$60, DW_AT_decl_column(0x03)
     300                    
     301                    
     302                    $C$DW$T$20      .dwtag  DW_TAG_structure_type
     303                            .dwattr $C$DW$T$20, DW_AT_byte_size(0x18)
     304                    $C$DW$22        .dwtag  DW_TAG_member
     305                            .dwattr $C$DW$22, DW_AT_type(*$C$DW$T$10)
     306                            .dwattr $C$DW$22, DW_AT_name("fd")
     307                            .dwattr $C$DW$22, DW_AT_TI_symbol_name("fd")
     308                            .dwattr $C$DW$22, DW_AT_data_member_location[DW_OP_plus_uconst 0x0]
     309                            .dwattr $C$DW$22, DW_AT_accessibility(DW_ACCESS_public)
     310                            .dwattr $C$DW$22, DW_AT_decl_file("C:/TI_CodeComposer/ccsv6/tools/compiler/ti-cgt-arm_15.12.1.
     311                            .dwattr $C$DW$22, DW_AT_decl_line(0x5c)
     312                            .dwattr $C$DW$22, DW_AT_decl_column(0x0b)
     313                    
     314                    $C$DW$23        .dwtag  DW_TAG_member
     315                            .dwattr $C$DW$23, DW_AT_type(*$C$DW$T$19)
TI ARM Assembler PC v15.12.1 Mon Nov 07 14:39:08 2016

Tools Copyright (c) 1996-2015 Texas Instruments Incorporated
Task_Trivial.asm                                                     PAGE   36

     316                            .dwattr $C$DW$23, DW_AT_name("buf")
     317                            .dwattr $C$DW$23, DW_AT_TI_symbol_name("buf")
     318                            .dwattr $C$DW$23, DW_AT_data_member_location[DW_OP_plus_uconst 0x4]
     319                            .dwattr $C$DW$23, DW_AT_accessibility(DW_ACCESS_public)
     320                            .dwattr $C$DW$23, DW_AT_decl_file("C:/TI_CodeComposer/ccsv6/tools/compiler/ti-cgt-arm_15.12.1.
     321                            .dwattr $C$DW$23, DW_AT_decl_line(0x5d)
     322                            .dwattr $C$DW$23, DW_AT_decl_column(0x16)
     323                    
     324                    $C$DW$24        .dwtag  DW_TAG_member
     325                            .dwattr $C$DW$24, DW_AT_type(*$C$DW$T$19)
     326                            .dwattr $C$DW$24, DW_AT_name("pos")
     327                            .dwattr $C$DW$24, DW_AT_TI_symbol_name("pos")
     328                            .dwattr $C$DW$24, DW_AT_data_member_location[DW_OP_plus_uconst 0x8]
     329                            .dwattr $C$DW$24, DW_AT_accessibility(DW_ACCESS_public)
     330                            .dwattr $C$DW$24, DW_AT_decl_file("C:/TI_CodeComposer/ccsv6/tools/compiler/ti-cgt-arm_15.12.1.
     331                            .dwattr $C$DW$24, DW_AT_decl_line(0x5e)
     332                            .dwattr $C$DW$24, DW_AT_decl_column(0x16)
     333                    
     334                    $C$DW$25        .dwtag  DW_TAG_member
     335                            .dwattr $C$DW$25, DW_AT_type(*$C$DW$T$19)
     336                            .dwattr $C$DW$25, DW_AT_name("bufend")
     337                            .dwattr $C$DW$25, DW_AT_TI_symbol_name("bufend")
     338                            .dwattr $C$DW$25, DW_AT_data_member_location[DW_OP_plus_uconst 0xc]
     339                            .dwattr $C$DW$25, DW_AT_accessibility(DW_ACCESS_public)
     340                            .dwattr $C$DW$25, DW_AT_decl_file("C:/TI_CodeComposer/ccsv6/tools/compiler/ti-cgt-arm_15.12.1.
     341                            .dwattr $C$DW$25, DW_AT_decl_line(0x5f)
     342                            .dwattr $C$DW$25, DW_AT_decl_column(0x16)
     343                    
     344                    $C$DW$26        .dwtag  DW_TAG_member
     345                            .dwattr $C$DW$26, DW_AT_type(*$C$DW$T$19)
     346                            .dwattr $C$DW$26, DW_AT_name("buff_stop")
     347                            .dwattr $C$DW$26, DW_AT_TI_symbol_name("buff_stop")
     348                            .dwattr $C$DW$26, DW_AT_data_member_location[DW_OP_plus_uconst 0x10]
     349                            .dwattr $C$DW$26, DW_AT_accessibility(DW_ACCESS_public)
     350                            .dwattr $C$DW$26, DW_AT_decl_file("C:/TI_CodeComposer/ccsv6/tools/compiler/ti-cgt-arm_15.12.1.
     351                            .dwattr $C$DW$26, DW_AT_decl_line(0x60)
     352                            .dwattr $C$DW$26, DW_AT_decl_column(0x16)
     353                    
     354                    $C$DW$27        .dwtag  DW_TAG_member
     355                            .dwattr $C$DW$27, DW_AT_type(*$C$DW$T$11)
     356                            .dwattr $C$DW$27, DW_AT_name("flags")
     357                            .dwattr $C$DW$27, DW_AT_TI_symbol_name("flags")
     358                            .dwattr $C$DW$27, DW_AT_data_member_location[DW_OP_plus_uconst 0x14]
     359                            .dwattr $C$DW$27, DW_AT_accessibility(DW_ACCESS_public)
     360                            .dwattr $C$DW$27, DW_AT_decl_file("C:/TI_CodeComposer/ccsv6/tools/compiler/ti-cgt-arm_15.12.1.
     361                            .dwattr $C$DW$27, DW_AT_decl_line(0x61)
     362                            .dwattr $C$DW$27, DW_AT_decl_column(0x16)
     363                    
     364                            .dwattr $C$DW$T$20, DW_AT_decl_file("C:/TI_CodeComposer/ccsv6/tools/compiler/ti-cgt-arm_15.12.
     365                            .dwattr $C$DW$T$20, DW_AT_decl_line(0x5b)
     366                            .dwattr $C$DW$T$20, DW_AT_decl_column(0x10)
     367                            .dwendtag $C$DW$T$20
     368                    
     369                    $C$DW$T$61      .dwtag  DW_TAG_typedef
     370                            .dwattr $C$DW$T$61, DW_AT_name("FILE")
TI ARM Assembler PC v15.12.1 Mon Nov 07 14:39:08 2016

Tools Copyright (c) 1996-2015 Texas Instruments Incorporated
Task_Trivial.asm                                                     PAGE   37

     371                            .dwattr $C$DW$T$61, DW_AT_type(*$C$DW$T$20)
     372                            .dwattr $C$DW$T$61, DW_AT_language(DW_LANG_C)
     373                            .dwattr $C$DW$T$61, DW_AT_decl_file("C:/TI_CodeComposer/ccsv6/tools/compiler/ti-cgt-arm_15.12.
     374                            .dwattr $C$DW$T$61, DW_AT_decl_line(0x62)
     375                            .dwattr $C$DW$T$61, DW_AT_decl_column(0x03)
     376                    
     377                    
     378                    $C$DW$T$24      .dwtag  DW_TAG_structure_type
     379                            .dwattr $C$DW$T$24, DW_AT_name("HeapRegion")
     380                            .dwattr $C$DW$T$24, DW_AT_byte_size(0x08)
     381                    $C$DW$28        .dwtag  DW_TAG_member
     382                            .dwattr $C$DW$28, DW_AT_type(*$C$DW$T$22)
     383                            .dwattr $C$DW$28, DW_AT_name("pucStartAddress")
     384                            .dwattr $C$DW$28, DW_AT_TI_symbol_name("pucStartAddress")
     385                            .dwattr $C$DW$28, DW_AT_data_member_location[DW_OP_plus_uconst 0x0]
     386                            .dwattr $C$DW$28, DW_AT_accessibility(DW_ACCESS_public)
     387                            .dwattr $C$DW$28, DW_AT_decl_file("H:\EECS_388\TI_ARM_Projects\FreeRTOS823_LM3S1968_ADC_MultMe
     388                            .dwattr $C$DW$28, DW_AT_decl_line(0x96)
     389                            .dwattr $C$DW$28, DW_AT_decl_column(0x0b)
     390                    
     391                    $C$DW$29        .dwtag  DW_TAG_member
     392                            .dwattr $C$DW$29, DW_AT_type(*$C$DW$T$23)
     393                            .dwattr $C$DW$29, DW_AT_name("xSizeInBytes")
     394                            .dwattr $C$DW$29, DW_AT_TI_symbol_name("xSizeInBytes")
     395                            .dwattr $C$DW$29, DW_AT_data_member_location[DW_OP_plus_uconst 0x4]
     396                            .dwattr $C$DW$29, DW_AT_accessibility(DW_ACCESS_public)
     397                            .dwattr $C$DW$29, DW_AT_decl_file("H:\EECS_388\TI_ARM_Projects\FreeRTOS823_LM3S1968_ADC_MultMe
     398                            .dwattr $C$DW$29, DW_AT_decl_line(0x97)
     399                            .dwattr $C$DW$29, DW_AT_decl_column(0x09)
     400                    
     401                            .dwattr $C$DW$T$24, DW_AT_decl_file("H:\EECS_388\TI_ARM_Projects\FreeRTOS823_LM3S1968_ADC_Mult
     402                            .dwattr $C$DW$T$24, DW_AT_decl_line(0x94)
     403                            .dwattr $C$DW$T$24, DW_AT_decl_column(0x10)
     404                            .dwendtag $C$DW$T$24
     405                    
     406                    $C$DW$T$62      .dwtag  DW_TAG_typedef
     407                            .dwattr $C$DW$T$62, DW_AT_name("HeapRegion_t")
     408                            .dwattr $C$DW$T$62, DW_AT_type(*$C$DW$T$24)
     409                            .dwattr $C$DW$T$62, DW_AT_language(DW_LANG_C)
     410                            .dwattr $C$DW$T$62, DW_AT_decl_file("H:\EECS_388\TI_ARM_Projects\FreeRTOS823_LM3S1968_ADC_Mult
     411                            .dwattr $C$DW$T$62, DW_AT_decl_line(0x98)
     412                            .dwattr $C$DW$T$62, DW_AT_decl_column(0x03)
     413                    
     414                    $C$DW$T$2       .dwtag  DW_TAG_unspecified_type
     415                            .dwattr $C$DW$T$2, DW_AT_name("void")
     416                    
     417                    $C$DW$T$3       .dwtag  DW_TAG_pointer_type
     418                            .dwattr $C$DW$T$3, DW_AT_type(*$C$DW$T$2)
     419                            .dwattr $C$DW$T$3, DW_AT_address_class(0x20)
     420                    
     421                    $C$DW$T$50      .dwtag  DW_TAG_typedef
     422                            .dwattr $C$DW$T$50, DW_AT_name("TaskHandle_t")
     423                            .dwattr $C$DW$T$50, DW_AT_type(*$C$DW$T$3)
     424                            .dwattr $C$DW$T$50, DW_AT_language(DW_LANG_C)
     425                            .dwattr $C$DW$T$50, DW_AT_decl_file("H:/EECS_388/TI_ARM_Projects/FreeRTOS823_LM3S1968_ADC_Mult
TI ARM Assembler PC v15.12.1 Mon Nov 07 14:39:08 2016

Tools Copyright (c) 1996-2015 Texas Instruments Incorporated
Task_Trivial.asm                                                     PAGE   38

     426                            .dwattr $C$DW$T$50, DW_AT_decl_line(0x67)
     427                            .dwattr $C$DW$T$50, DW_AT_decl_column(0x10)
     428                    
     429                    
     430                    $C$DW$T$37      .dwtag  DW_TAG_subroutine_type
     431                            .dwattr $C$DW$T$37, DW_AT_language(DW_LANG_C)
     432                    $C$DW$30        .dwtag  DW_TAG_formal_parameter
     433                            .dwattr $C$DW$30, DW_AT_type(*$C$DW$T$3)
     434                    
     435                            .dwendtag $C$DW$T$37
     436                    
     437                    $C$DW$T$38      .dwtag  DW_TAG_pointer_type
     438                            .dwattr $C$DW$T$38, DW_AT_type(*$C$DW$T$37)
     439                            .dwattr $C$DW$T$38, DW_AT_address_class(0x20)
     440                    
     441                    $C$DW$T$39      .dwtag  DW_TAG_typedef
     442                            .dwattr $C$DW$T$39, DW_AT_name("TaskFunction_t")
     443                            .dwattr $C$DW$T$39, DW_AT_type(*$C$DW$T$38)
     444                            .dwattr $C$DW$T$39, DW_AT_language(DW_LANG_C)
     445                            .dwattr $C$DW$T$39, DW_AT_decl_file("H:\EECS_388\TI_ARM_Projects\FreeRTOS823_LM3S1968_ADC_Mult
     446                            .dwattr $C$DW$T$39, DW_AT_decl_line(0x4d)
     447                            .dwattr $C$DW$T$39, DW_AT_decl_column(0x10)
     448                    
     449                    $C$DW$T$4       .dwtag  DW_TAG_base_type
     450                            .dwattr $C$DW$T$4, DW_AT_encoding(DW_ATE_boolean)
     451                            .dwattr $C$DW$T$4, DW_AT_name("bool")
     452                            .dwattr $C$DW$T$4, DW_AT_byte_size(0x01)
     453                    
     454                    $C$DW$T$5       .dwtag  DW_TAG_base_type
     455                            .dwattr $C$DW$T$5, DW_AT_encoding(DW_ATE_signed_char)
     456                            .dwattr $C$DW$T$5, DW_AT_name("signed char")
     457                            .dwattr $C$DW$T$5, DW_AT_byte_size(0x01)
     458                    
     459                    $C$DW$T$65      .dwtag  DW_TAG_typedef
     460                            .dwattr $C$DW$T$65, DW_AT_name("int8_t")
     461                            .dwattr $C$DW$T$65, DW_AT_type(*$C$DW$T$5)
     462                            .dwattr $C$DW$T$65, DW_AT_language(DW_LANG_C)
     463                            .dwattr $C$DW$T$65, DW_AT_decl_file("C:/TI_CodeComposer/ccsv6/tools/compiler/ti-cgt-arm_15.12.
     464                            .dwattr $C$DW$T$65, DW_AT_decl_line(0x2a)
     465                            .dwattr $C$DW$T$65, DW_AT_decl_column(0x1d)
     466                    
     467                    $C$DW$T$66      .dwtag  DW_TAG_typedef
     468                            .dwattr $C$DW$T$66, DW_AT_name("int_least8_t")
     469                            .dwattr $C$DW$T$66, DW_AT_type(*$C$DW$T$65)
     470                            .dwattr $C$DW$T$66, DW_AT_language(DW_LANG_C)
     471                            .dwattr $C$DW$T$66, DW_AT_decl_file("C:/TI_CodeComposer/ccsv6/tools/compiler/ti-cgt-arm_15.12.
     472                            .dwattr $C$DW$T$66, DW_AT_decl_line(0x37)
     473                            .dwattr $C$DW$T$66, DW_AT_decl_column(0x17)
     474                    
     475                    $C$DW$T$6       .dwtag  DW_TAG_base_type
     476                            .dwattr $C$DW$T$6, DW_AT_encoding(DW_ATE_unsigned_char)
     477                            .dwattr $C$DW$T$6, DW_AT_name("unsigned char")
     478                            .dwattr $C$DW$T$6, DW_AT_byte_size(0x01)
     479                    
     480                    $C$DW$T$19      .dwtag  DW_TAG_pointer_type
TI ARM Assembler PC v15.12.1 Mon Nov 07 14:39:08 2016

Tools Copyright (c) 1996-2015 Texas Instruments Incorporated
Task_Trivial.asm                                                     PAGE   39

     481                            .dwattr $C$DW$T$19, DW_AT_type(*$C$DW$T$6)
     482                            .dwattr $C$DW$T$19, DW_AT_address_class(0x20)
     483                    
     484                    $C$DW$T$67      .dwtag  DW_TAG_typedef
     485                            .dwattr $C$DW$T$67, DW_AT_name("tBoolean")
     486                            .dwattr $C$DW$T$67, DW_AT_type(*$C$DW$T$6)
     487                            .dwattr $C$DW$T$67, DW_AT_language(DW_LANG_C)
     488                            .dwattr $C$DW$T$67, DW_AT_decl_file("C:/TI_CodeComposer/StellarisWare-LM3S1968/inc/hw_types.h"
     489                            .dwattr $C$DW$T$67, DW_AT_decl_line(0x30)
     490                            .dwattr $C$DW$T$67, DW_AT_decl_column(0x17)
     491                    
     492                    $C$DW$T$21      .dwtag  DW_TAG_typedef
     493                            .dwattr $C$DW$T$21, DW_AT_name("uint8_t")
     494                            .dwattr $C$DW$T$21, DW_AT_type(*$C$DW$T$6)
     495                            .dwattr $C$DW$T$21, DW_AT_language(DW_LANG_C)
     496                            .dwattr $C$DW$T$21, DW_AT_decl_file("C:/TI_CodeComposer/ccsv6/tools/compiler/ti-cgt-arm_15.12.
     497                            .dwattr $C$DW$T$21, DW_AT_decl_line(0x2b)
     498                            .dwattr $C$DW$T$21, DW_AT_decl_column(0x1c)
     499                    
     500                    $C$DW$T$22      .dwtag  DW_TAG_pointer_type
     501                            .dwattr $C$DW$T$22, DW_AT_type(*$C$DW$T$21)
     502                            .dwattr $C$DW$T$22, DW_AT_address_class(0x20)
     503                    
     504                    $C$DW$T$68      .dwtag  DW_TAG_typedef
     505                            .dwattr $C$DW$T$68, DW_AT_name("portCHAR")
     506                            .dwattr $C$DW$T$68, DW_AT_type(*$C$DW$T$21)
     507                            .dwattr $C$DW$T$68, DW_AT_language(DW_LANG_C)
     508                            .dwattr $C$DW$T$68, DW_AT_decl_file("H:/EECS_388/TI_ARM_Projects/FreeRTOS823_LM3S1968_ADC_Mult
     509                            .dwattr $C$DW$T$68, DW_AT_decl_line(0x66)
     510                            .dwattr $C$DW$T$68, DW_AT_decl_column(0x12)
     511                    
     512                    $C$DW$T$69      .dwtag  DW_TAG_typedef
     513                            .dwattr $C$DW$T$69, DW_AT_name("uint_least8_t")
     514                            .dwattr $C$DW$T$69, DW_AT_type(*$C$DW$T$21)
     515                            .dwattr $C$DW$T$69, DW_AT_language(DW_LANG_C)
     516                            .dwattr $C$DW$T$69, DW_AT_decl_file("C:/TI_CodeComposer/ccsv6/tools/compiler/ti-cgt-arm_15.12.
     517                            .dwattr $C$DW$T$69, DW_AT_decl_line(0x38)
     518                            .dwattr $C$DW$T$69, DW_AT_decl_column(0x16)
     519                    
     520                    $C$DW$T$7       .dwtag  DW_TAG_base_type
     521                            .dwattr $C$DW$T$7, DW_AT_encoding(DW_ATE_signed_char)
     522                            .dwattr $C$DW$T$7, DW_AT_name("wchar_t")
     523                            .dwattr $C$DW$T$7, DW_AT_byte_size(0x02)
     524                    
     525                    $C$DW$T$8       .dwtag  DW_TAG_base_type
     526                            .dwattr $C$DW$T$8, DW_AT_encoding(DW_ATE_signed)
     527                            .dwattr $C$DW$T$8, DW_AT_name("short")
     528                            .dwattr $C$DW$T$8, DW_AT_byte_size(0x02)
     529                    
     530                    $C$DW$T$70      .dwtag  DW_TAG_typedef
     531                            .dwattr $C$DW$T$70, DW_AT_name("int16_t")
     532                            .dwattr $C$DW$T$70, DW_AT_type(*$C$DW$T$8)
     533                            .dwattr $C$DW$T$70, DW_AT_language(DW_LANG_C)
     534                            .dwattr $C$DW$T$70, DW_AT_decl_file("C:/TI_CodeComposer/ccsv6/tools/compiler/ti-cgt-arm_15.12.
     535                            .dwattr $C$DW$T$70, DW_AT_decl_line(0x2c)
TI ARM Assembler PC v15.12.1 Mon Nov 07 14:39:08 2016

Tools Copyright (c) 1996-2015 Texas Instruments Incorporated
Task_Trivial.asm                                                     PAGE   40

     536                            .dwattr $C$DW$T$70, DW_AT_decl_column(0x1d)
     537                    
     538                    $C$DW$T$71      .dwtag  DW_TAG_typedef
     539                            .dwattr $C$DW$T$71, DW_AT_name("int_least16_t")
     540                            .dwattr $C$DW$T$71, DW_AT_type(*$C$DW$T$70)
     541                            .dwattr $C$DW$T$71, DW_AT_language(DW_LANG_C)
     542                            .dwattr $C$DW$T$71, DW_AT_decl_file("C:/TI_CodeComposer/ccsv6/tools/compiler/ti-cgt-arm_15.12.
     543                            .dwattr $C$DW$T$71, DW_AT_decl_line(0x3a)
     544                            .dwattr $C$DW$T$71, DW_AT_decl_column(0x17)
     545                    
     546                    $C$DW$T$72      .dwtag  DW_TAG_typedef
     547                            .dwattr $C$DW$T$72, DW_AT_name("portSHORT")
     548                            .dwattr $C$DW$T$72, DW_AT_type(*$C$DW$T$70)
     549                            .dwattr $C$DW$T$72, DW_AT_language(DW_LANG_C)
     550                            .dwattr $C$DW$T$72, DW_AT_decl_file("H:/EECS_388/TI_ARM_Projects/FreeRTOS823_LM3S1968_ADC_Mult
     551                            .dwattr $C$DW$T$72, DW_AT_decl_line(0x6a)
     552                            .dwattr $C$DW$T$72, DW_AT_decl_column(0x12)
     553                    
     554                    $C$DW$T$9       .dwtag  DW_TAG_base_type
     555                            .dwattr $C$DW$T$9, DW_AT_encoding(DW_ATE_unsigned)
     556                            .dwattr $C$DW$T$9, DW_AT_name("unsigned short")
     557                            .dwattr $C$DW$T$9, DW_AT_byte_size(0x02)
     558                    
     559                    $C$DW$T$44      .dwtag  DW_TAG_typedef
     560                            .dwattr $C$DW$T$44, DW_AT_name("uint16_t")
     561                            .dwattr $C$DW$T$44, DW_AT_type(*$C$DW$T$9)
     562                            .dwattr $C$DW$T$44, DW_AT_language(DW_LANG_C)
     563                            .dwattr $C$DW$T$44, DW_AT_decl_file("C:/TI_CodeComposer/ccsv6/tools/compiler/ti-cgt-arm_15.12.
     564                            .dwattr $C$DW$T$44, DW_AT_decl_line(0x2d)
     565                            .dwattr $C$DW$T$44, DW_AT_decl_column(0x1c)
     566                    
     567                    $C$DW$T$73      .dwtag  DW_TAG_typedef
     568                            .dwattr $C$DW$T$73, DW_AT_name("uint_least16_t")
     569                            .dwattr $C$DW$T$73, DW_AT_type(*$C$DW$T$44)
     570                            .dwattr $C$DW$T$73, DW_AT_language(DW_LANG_C)
     571                            .dwattr $C$DW$T$73, DW_AT_decl_file("C:/TI_CodeComposer/ccsv6/tools/compiler/ti-cgt-arm_15.12.
     572                            .dwattr $C$DW$T$73, DW_AT_decl_line(0x3b)
     573                            .dwattr $C$DW$T$73, DW_AT_decl_column(0x16)
     574                    
     575                    $C$DW$T$74      .dwtag  DW_TAG_typedef
     576                            .dwattr $C$DW$T$74, DW_AT_name("wchar_t")
     577                            .dwattr $C$DW$T$74, DW_AT_type(*$C$DW$T$9)
     578                            .dwattr $C$DW$T$74, DW_AT_language(DW_LANG_C)
     579                            .dwattr $C$DW$T$74, DW_AT_decl_file("C:/TI_CodeComposer/ccsv6/tools/compiler/ti-cgt-arm_15.12.
     580                            .dwattr $C$DW$T$74, DW_AT_decl_line(0x41)
     581                            .dwattr $C$DW$T$74, DW_AT_decl_column(0x1a)
     582                    
     583                    $C$DW$T$10      .dwtag  DW_TAG_base_type
     584                            .dwattr $C$DW$T$10, DW_AT_encoding(DW_ATE_signed)
     585                            .dwattr $C$DW$T$10, DW_AT_name("int")
     586                            .dwattr $C$DW$T$10, DW_AT_byte_size(0x04)
     587                    
     588                    $C$DW$T$54      .dwtag  DW_TAG_typedef
     589                            .dwattr $C$DW$T$54, DW_AT_name("int32_t")
     590                            .dwattr $C$DW$T$54, DW_AT_type(*$C$DW$T$10)
TI ARM Assembler PC v15.12.1 Mon Nov 07 14:39:08 2016

Tools Copyright (c) 1996-2015 Texas Instruments Incorporated
Task_Trivial.asm                                                     PAGE   41

     591                            .dwattr $C$DW$T$54, DW_AT_language(DW_LANG_C)
     592                            .dwattr $C$DW$T$54, DW_AT_decl_file("C:/TI_CodeComposer/ccsv6/tools/compiler/ti-cgt-arm_15.12.
     593                            .dwattr $C$DW$T$54, DW_AT_decl_line(0x2e)
     594                            .dwattr $C$DW$T$54, DW_AT_decl_column(0x1d)
     595                    
     596                    $C$DW$T$55      .dwtag  DW_TAG_typedef
     597                            .dwattr $C$DW$T$55, DW_AT_name("BaseType_t")
     598                            .dwattr $C$DW$T$55, DW_AT_type(*$C$DW$T$54)
     599                            .dwattr $C$DW$T$55, DW_AT_language(DW_LANG_C)
     600                            .dwattr $C$DW$T$55, DW_AT_decl_file("H:/EECS_388/TI_ARM_Projects/FreeRTOS823_LM3S1968_ADC_Mult
     601                            .dwattr $C$DW$T$55, DW_AT_decl_line(0x6f)
     602                            .dwattr $C$DW$T$55, DW_AT_decl_column(0x12)
     603                    
     604                    
     605                    $C$DW$T$75      .dwtag  DW_TAG_subroutine_type
     606                            .dwattr $C$DW$T$75, DW_AT_type(*$C$DW$T$55)
     607                            .dwattr $C$DW$T$75, DW_AT_language(DW_LANG_C)
     608                    $C$DW$31        .dwtag  DW_TAG_formal_parameter
     609                            .dwattr $C$DW$31, DW_AT_type(*$C$DW$T$3)
     610                    
     611                            .dwendtag $C$DW$T$75
     612                    
     613                    $C$DW$T$76      .dwtag  DW_TAG_pointer_type
     614                            .dwattr $C$DW$T$76, DW_AT_type(*$C$DW$T$75)
     615                            .dwattr $C$DW$T$76, DW_AT_address_class(0x20)
     616                    
     617                    $C$DW$T$77      .dwtag  DW_TAG_typedef
     618                            .dwattr $C$DW$T$77, DW_AT_name("TaskHookFunction_t")
     619                            .dwattr $C$DW$T$77, DW_AT_type(*$C$DW$T$76)
     620                            .dwattr $C$DW$T$77, DW_AT_language(DW_LANG_C)
     621                            .dwattr $C$DW$T$77, DW_AT_decl_file("H:/EECS_388/TI_ARM_Projects/FreeRTOS823_LM3S1968_ADC_Mult
     622                            .dwattr $C$DW$T$77, DW_AT_decl_line(0x6d)
     623                            .dwattr $C$DW$T$77, DW_AT_decl_column(0x16)
     624                    
     625                    $C$DW$T$78      .dwtag  DW_TAG_typedef
     626                            .dwattr $C$DW$T$78, DW_AT_name("int_fast16_t")
     627                            .dwattr $C$DW$T$78, DW_AT_type(*$C$DW$T$54)
     628                            .dwattr $C$DW$T$78, DW_AT_language(DW_LANG_C)
     629                            .dwattr $C$DW$T$78, DW_AT_decl_file("C:/TI_CodeComposer/ccsv6/tools/compiler/ti-cgt-arm_15.12.
     630                            .dwattr $C$DW$T$78, DW_AT_decl_line(0x47)
     631                            .dwattr $C$DW$T$78, DW_AT_decl_column(0x17)
     632                    
     633                    $C$DW$T$79      .dwtag  DW_TAG_typedef
     634                            .dwattr $C$DW$T$79, DW_AT_name("int_fast32_t")
     635                            .dwattr $C$DW$T$79, DW_AT_type(*$C$DW$T$54)
     636                            .dwattr $C$DW$T$79, DW_AT_language(DW_LANG_C)
     637                            .dwattr $C$DW$T$79, DW_AT_decl_file("C:/TI_CodeComposer/ccsv6/tools/compiler/ti-cgt-arm_15.12.
     638                            .dwattr $C$DW$T$79, DW_AT_decl_line(0x4a)
     639                            .dwattr $C$DW$T$79, DW_AT_decl_column(0x17)
     640                    
     641                    $C$DW$T$80      .dwtag  DW_TAG_typedef
     642                            .dwattr $C$DW$T$80, DW_AT_name("int_fast8_t")
     643                            .dwattr $C$DW$T$80, DW_AT_type(*$C$DW$T$54)
     644                            .dwattr $C$DW$T$80, DW_AT_language(DW_LANG_C)
     645                            .dwattr $C$DW$T$80, DW_AT_decl_file("C:/TI_CodeComposer/ccsv6/tools/compiler/ti-cgt-arm_15.12.
TI ARM Assembler PC v15.12.1 Mon Nov 07 14:39:08 2016

Tools Copyright (c) 1996-2015 Texas Instruments Incorporated
Task_Trivial.asm                                                     PAGE   42

     646                            .dwattr $C$DW$T$80, DW_AT_decl_line(0x45)
     647                            .dwattr $C$DW$T$80, DW_AT_decl_column(0x17)
     648                    
     649                    $C$DW$T$81      .dwtag  DW_TAG_typedef
     650                            .dwattr $C$DW$T$81, DW_AT_name("int_least32_t")
     651                            .dwattr $C$DW$T$81, DW_AT_type(*$C$DW$T$54)
     652                            .dwattr $C$DW$T$81, DW_AT_language(DW_LANG_C)
     653                            .dwattr $C$DW$T$81, DW_AT_decl_file("C:/TI_CodeComposer/ccsv6/tools/compiler/ti-cgt-arm_15.12.
     654                            .dwattr $C$DW$T$81, DW_AT_decl_line(0x3c)
     655                            .dwattr $C$DW$T$81, DW_AT_decl_column(0x17)
     656                    
     657                    $C$DW$T$82      .dwtag  DW_TAG_typedef
     658                            .dwattr $C$DW$T$82, DW_AT_name("portBASE_TYPE")
     659                            .dwattr $C$DW$T$82, DW_AT_type(*$C$DW$T$54)
     660                            .dwattr $C$DW$T$82, DW_AT_language(DW_LANG_C)
     661                            .dwattr $C$DW$T$82, DW_AT_decl_file("H:/EECS_388/TI_ARM_Projects/FreeRTOS823_LM3S1968_ADC_Mult
     662                            .dwattr $C$DW$T$82, DW_AT_decl_line(0x6c)
     663                            .dwattr $C$DW$T$82, DW_AT_decl_column(0x12)
     664                    
     665                    $C$DW$T$83      .dwtag  DW_TAG_typedef
     666                            .dwattr $C$DW$T$83, DW_AT_name("portLONG")
     667                            .dwattr $C$DW$T$83, DW_AT_type(*$C$DW$T$54)
     668                            .dwattr $C$DW$T$83, DW_AT_language(DW_LANG_C)
     669                            .dwattr $C$DW$T$83, DW_AT_decl_file("H:/EECS_388/TI_ARM_Projects/FreeRTOS823_LM3S1968_ADC_Mult
     670                            .dwattr $C$DW$T$83, DW_AT_decl_line(0x69)
     671                            .dwattr $C$DW$T$83, DW_AT_decl_column(0x12)
     672                    
     673                    $C$DW$T$84      .dwtag  DW_TAG_typedef
     674                            .dwattr $C$DW$T$84, DW_AT_name("intptr_t")
     675                            .dwattr $C$DW$T$84, DW_AT_type(*$C$DW$T$10)
     676                            .dwattr $C$DW$T$84, DW_AT_language(DW_LANG_C)
     677                            .dwattr $C$DW$T$84, DW_AT_decl_file("C:/TI_CodeComposer/ccsv6/tools/compiler/ti-cgt-arm_15.12.
     678                            .dwattr $C$DW$T$84, DW_AT_decl_line(0x52)
     679                            .dwattr $C$DW$T$84, DW_AT_decl_column(0x1a)
     680                    
     681                    $C$DW$T$85      .dwtag  DW_TAG_typedef
     682                            .dwattr $C$DW$T$85, DW_AT_name("ptrdiff_t")
     683                            .dwattr $C$DW$T$85, DW_AT_type(*$C$DW$T$10)
     684                            .dwattr $C$DW$T$85, DW_AT_language(DW_LANG_C)
     685                            .dwattr $C$DW$T$85, DW_AT_decl_file("C:/TI_CodeComposer/ccsv6/tools/compiler/ti-cgt-arm_15.12.
     686                            .dwattr $C$DW$T$85, DW_AT_decl_line(0x36)
     687                            .dwattr $C$DW$T$85, DW_AT_decl_column(0x1c)
     688                    
     689                    $C$DW$T$11      .dwtag  DW_TAG_base_type
     690                            .dwattr $C$DW$T$11, DW_AT_encoding(DW_ATE_unsigned)
     691                            .dwattr $C$DW$T$11, DW_AT_name("unsigned int")
     692                            .dwattr $C$DW$T$11, DW_AT_byte_size(0x04)
     693                    
     694                    $C$DW$T$23      .dwtag  DW_TAG_typedef
     695                            .dwattr $C$DW$T$23, DW_AT_name("size_t")
     696                            .dwattr $C$DW$T$23, DW_AT_type(*$C$DW$T$11)
     697                            .dwattr $C$DW$T$23, DW_AT_language(DW_LANG_C)
     698                            .dwattr $C$DW$T$23, DW_AT_decl_file("C:/TI_CodeComposer/ccsv6/tools/compiler/ti-cgt-arm_15.12.
     699                            .dwattr $C$DW$T$23, DW_AT_decl_line(0x3a)
     700                            .dwattr $C$DW$T$23, DW_AT_decl_column(0x19)
TI ARM Assembler PC v15.12.1 Mon Nov 07 14:39:08 2016

Tools Copyright (c) 1996-2015 Texas Instruments Incorporated
Task_Trivial.asm                                                     PAGE   43

     701                    
     702                    $C$DW$T$26      .dwtag  DW_TAG_typedef
     703                            .dwattr $C$DW$T$26, DW_AT_name("uint32_t")
     704                            .dwattr $C$DW$T$26, DW_AT_type(*$C$DW$T$11)
     705                            .dwattr $C$DW$T$26, DW_AT_language(DW_LANG_C)
     706                            .dwattr $C$DW$T$26, DW_AT_decl_file("C:/TI_CodeComposer/ccsv6/tools/compiler/ti-cgt-arm_15.12.
     707                            .dwattr $C$DW$T$26, DW_AT_decl_line(0x2f)
     708                            .dwattr $C$DW$T$26, DW_AT_decl_column(0x1c)
     709                    
     710                    $C$DW$T$45      .dwtag  DW_TAG_typedef
     711                            .dwattr $C$DW$T$45, DW_AT_name("StackType_t")
     712                            .dwattr $C$DW$T$45, DW_AT_type(*$C$DW$T$26)
     713                            .dwattr $C$DW$T$45, DW_AT_language(DW_LANG_C)
     714                            .dwattr $C$DW$T$45, DW_AT_decl_file("H:/EECS_388/TI_ARM_Projects/FreeRTOS823_LM3S1968_ADC_Mult
     715                            .dwattr $C$DW$T$45, DW_AT_decl_line(0x6e)
     716                            .dwattr $C$DW$T$45, DW_AT_decl_column(0x12)
     717                    
     718                    $C$DW$T$46      .dwtag  DW_TAG_pointer_type
     719                            .dwattr $C$DW$T$46, DW_AT_type(*$C$DW$T$45)
     720                            .dwattr $C$DW$T$46, DW_AT_address_class(0x20)
     721                    
     722                    $C$DW$T$32      .dwtag  DW_TAG_typedef
     723                            .dwattr $C$DW$T$32, DW_AT_name("TickType_t")
     724                            .dwattr $C$DW$T$32, DW_AT_type(*$C$DW$T$26)
     725                            .dwattr $C$DW$T$32, DW_AT_language(DW_LANG_C)
     726                            .dwattr $C$DW$T$32, DW_AT_decl_file("H:/EECS_388/TI_ARM_Projects/FreeRTOS823_LM3S1968_ADC_Mult
     727                            .dwattr $C$DW$T$32, DW_AT_decl_line(0x76)
     728                            .dwattr $C$DW$T$32, DW_AT_decl_column(0x13)
     729                    
     730                    $C$DW$T$27      .dwtag  DW_TAG_typedef
     731                            .dwattr $C$DW$T$27, DW_AT_name("UBaseType_t")
     732                            .dwattr $C$DW$T$27, DW_AT_type(*$C$DW$T$26)
     733                            .dwattr $C$DW$T$27, DW_AT_language(DW_LANG_C)
     734                            .dwattr $C$DW$T$27, DW_AT_decl_file("H:/EECS_388/TI_ARM_Projects/FreeRTOS823_LM3S1968_ADC_Mult
     735                            .dwattr $C$DW$T$27, DW_AT_decl_line(0x70)
     736                            .dwattr $C$DW$T$27, DW_AT_decl_column(0x12)
     737                    
     738                    $C$DW$T$86      .dwtag  DW_TAG_typedef
     739                            .dwattr $C$DW$T$86, DW_AT_name("portSTACK_TYPE")
     740                            .dwattr $C$DW$T$86, DW_AT_type(*$C$DW$T$26)
     741                            .dwattr $C$DW$T$86, DW_AT_language(DW_LANG_C)
     742                            .dwattr $C$DW$T$86, DW_AT_decl_file("H:/EECS_388/TI_ARM_Projects/FreeRTOS823_LM3S1968_ADC_Mult
     743                            .dwattr $C$DW$T$86, DW_AT_decl_line(0x6b)
     744                            .dwattr $C$DW$T$86, DW_AT_decl_column(0x12)
     745                    
     746                    $C$DW$T$87      .dwtag  DW_TAG_typedef
     747                            .dwattr $C$DW$T$87, DW_AT_name("uint_fast16_t")
     748                            .dwattr $C$DW$T$87, DW_AT_type(*$C$DW$T$26)
     749                            .dwattr $C$DW$T$87, DW_AT_language(DW_LANG_C)
     750                            .dwattr $C$DW$T$87, DW_AT_decl_file("C:/TI_CodeComposer/ccsv6/tools/compiler/ti-cgt-arm_15.12.
     751                            .dwattr $C$DW$T$87, DW_AT_decl_line(0x48)
     752                            .dwattr $C$DW$T$87, DW_AT_decl_column(0x16)
     753                    
     754                    $C$DW$T$88      .dwtag  DW_TAG_typedef
     755                            .dwattr $C$DW$T$88, DW_AT_name("uint_fast32_t")
TI ARM Assembler PC v15.12.1 Mon Nov 07 14:39:08 2016

Tools Copyright (c) 1996-2015 Texas Instruments Incorporated
Task_Trivial.asm                                                     PAGE   44

     756                            .dwattr $C$DW$T$88, DW_AT_type(*$C$DW$T$26)
     757                            .dwattr $C$DW$T$88, DW_AT_language(DW_LANG_C)
     758                            .dwattr $C$DW$T$88, DW_AT_decl_file("C:/TI_CodeComposer/ccsv6/tools/compiler/ti-cgt-arm_15.12.
     759                            .dwattr $C$DW$T$88, DW_AT_decl_line(0x4b)
     760                            .dwattr $C$DW$T$88, DW_AT_decl_column(0x16)
     761                    
     762                    $C$DW$T$89      .dwtag  DW_TAG_typedef
     763                            .dwattr $C$DW$T$89, DW_AT_name("uint_fast8_t")
     764                            .dwattr $C$DW$T$89, DW_AT_type(*$C$DW$T$26)
     765                            .dwattr $C$DW$T$89, DW_AT_language(DW_LANG_C)
     766                            .dwattr $C$DW$T$89, DW_AT_decl_file("C:/TI_CodeComposer/ccsv6/tools/compiler/ti-cgt-arm_15.12.
     767                            .dwattr $C$DW$T$89, DW_AT_decl_line(0x46)
     768                            .dwattr $C$DW$T$89, DW_AT_decl_column(0x16)
     769                    
     770                    $C$DW$T$90      .dwtag  DW_TAG_typedef
     771                            .dwattr $C$DW$T$90, DW_AT_name("uint_least32_t")
     772                            .dwattr $C$DW$T$90, DW_AT_type(*$C$DW$T$26)
     773                            .dwattr $C$DW$T$90, DW_AT_language(DW_LANG_C)
     774                            .dwattr $C$DW$T$90, DW_AT_decl_file("C:/TI_CodeComposer/ccsv6/tools/compiler/ti-cgt-arm_15.12.
     775                            .dwattr $C$DW$T$90, DW_AT_decl_line(0x3d)
     776                            .dwattr $C$DW$T$90, DW_AT_decl_column(0x16)
     777                    
     778                    $C$DW$T$91      .dwtag  DW_TAG_typedef
     779                            .dwattr $C$DW$T$91, DW_AT_name("uintptr_t")
     780                            .dwattr $C$DW$T$91, DW_AT_type(*$C$DW$T$11)
     781                            .dwattr $C$DW$T$91, DW_AT_language(DW_LANG_C)
     782                            .dwattr $C$DW$T$91, DW_AT_decl_file("C:/TI_CodeComposer/ccsv6/tools/compiler/ti-cgt-arm_15.12.
     783                            .dwattr $C$DW$T$91, DW_AT_decl_line(0x53)
     784                            .dwattr $C$DW$T$91, DW_AT_decl_column(0x1a)
     785                    
     786                    $C$DW$T$12      .dwtag  DW_TAG_base_type
     787                            .dwattr $C$DW$T$12, DW_AT_encoding(DW_ATE_signed)
     788                            .dwattr $C$DW$T$12, DW_AT_name("long")
     789                            .dwattr $C$DW$T$12, DW_AT_byte_size(0x04)
     790                    
     791                    $C$DW$T$92      .dwtag  DW_TAG_typedef
     792                            .dwattr $C$DW$T$92, DW_AT_name("fpos_t")
     793                            .dwattr $C$DW$T$92, DW_AT_type(*$C$DW$T$12)
     794                            .dwattr $C$DW$T$92, DW_AT_language(DW_LANG_C)
     795                            .dwattr $C$DW$T$92, DW_AT_decl_file("C:/TI_CodeComposer/ccsv6/tools/compiler/ti-cgt-arm_15.12.
     796                            .dwattr $C$DW$T$92, DW_AT_decl_line(0x6e)
     797                            .dwattr $C$DW$T$92, DW_AT_decl_column(0x0e)
     798                    
     799                    $C$DW$T$13      .dwtag  DW_TAG_base_type
     800                            .dwattr $C$DW$T$13, DW_AT_encoding(DW_ATE_unsigned)
     801                            .dwattr $C$DW$T$13, DW_AT_name("unsigned long")
     802                            .dwattr $C$DW$T$13, DW_AT_byte_size(0x04)
     803                    
     804                    $C$DW$T$14      .dwtag  DW_TAG_base_type
     805                            .dwattr $C$DW$T$14, DW_AT_encoding(DW_ATE_signed)
     806                            .dwattr $C$DW$T$14, DW_AT_name("long long")
     807                            .dwattr $C$DW$T$14, DW_AT_byte_size(0x08)
     808                    
     809                    $C$DW$T$93      .dwtag  DW_TAG_typedef
     810                            .dwattr $C$DW$T$93, DW_AT_name("int64_t")
TI ARM Assembler PC v15.12.1 Mon Nov 07 14:39:08 2016

Tools Copyright (c) 1996-2015 Texas Instruments Incorporated
Task_Trivial.asm                                                     PAGE   45

     811                            .dwattr $C$DW$T$93, DW_AT_type(*$C$DW$T$14)
     812                            .dwattr $C$DW$T$93, DW_AT_language(DW_LANG_C)
     813                            .dwattr $C$DW$T$93, DW_AT_decl_file("C:/TI_CodeComposer/ccsv6/tools/compiler/ti-cgt-arm_15.12.
     814                            .dwattr $C$DW$T$93, DW_AT_decl_line(0x32)
     815                            .dwattr $C$DW$T$93, DW_AT_decl_column(0x21)
     816                    
     817                    $C$DW$T$94      .dwtag  DW_TAG_typedef
     818                            .dwattr $C$DW$T$94, DW_AT_name("int_fast64_t")
     819                            .dwattr $C$DW$T$94, DW_AT_type(*$C$DW$T$93)
     820                            .dwattr $C$DW$T$94, DW_AT_language(DW_LANG_C)
     821                            .dwattr $C$DW$T$94, DW_AT_decl_file("C:/TI_CodeComposer/ccsv6/tools/compiler/ti-cgt-arm_15.12.
     822                            .dwattr $C$DW$T$94, DW_AT_decl_line(0x4e)
     823                            .dwattr $C$DW$T$94, DW_AT_decl_column(0x17)
     824                    
     825                    $C$DW$T$95      .dwtag  DW_TAG_typedef
     826                            .dwattr $C$DW$T$95, DW_AT_name("int_least64_t")
     827                            .dwattr $C$DW$T$95, DW_AT_type(*$C$DW$T$93)
     828                            .dwattr $C$DW$T$95, DW_AT_language(DW_LANG_C)
     829                            .dwattr $C$DW$T$95, DW_AT_decl_file("C:/TI_CodeComposer/ccsv6/tools/compiler/ti-cgt-arm_15.12.
     830                            .dwattr $C$DW$T$95, DW_AT_decl_line(0x40)
     831                            .dwattr $C$DW$T$95, DW_AT_decl_column(0x17)
     832                    
     833                    $C$DW$T$96      .dwtag  DW_TAG_typedef
     834                            .dwattr $C$DW$T$96, DW_AT_name("portDOUBLE")
     835                            .dwattr $C$DW$T$96, DW_AT_type(*$C$DW$T$93)
     836                            .dwattr $C$DW$T$96, DW_AT_language(DW_LANG_C)
     837                            .dwattr $C$DW$T$96, DW_AT_decl_file("H:/EECS_388/TI_ARM_Projects/FreeRTOS823_LM3S1968_ADC_Mult
     838                            .dwattr $C$DW$T$96, DW_AT_decl_line(0x68)
     839                            .dwattr $C$DW$T$96, DW_AT_decl_column(0x12)
     840                    
     841                    $C$DW$T$97      .dwtag  DW_TAG_typedef
     842                            .dwattr $C$DW$T$97, DW_AT_name("intmax_t")
     843                            .dwattr $C$DW$T$97, DW_AT_type(*$C$DW$T$14)
     844                            .dwattr $C$DW$T$97, DW_AT_language(DW_LANG_C)
     845                            .dwattr $C$DW$T$97, DW_AT_decl_file("C:/TI_CodeComposer/ccsv6/tools/compiler/ti-cgt-arm_15.12.
     846                            .dwattr $C$DW$T$97, DW_AT_decl_line(0x56)
     847                            .dwattr $C$DW$T$97, DW_AT_decl_column(0x20)
     848                    
     849                    $C$DW$T$15      .dwtag  DW_TAG_base_type
     850                            .dwattr $C$DW$T$15, DW_AT_encoding(DW_ATE_unsigned)
     851                            .dwattr $C$DW$T$15, DW_AT_name("unsigned long long")
     852                            .dwattr $C$DW$T$15, DW_AT_byte_size(0x08)
     853                    
     854                    $C$DW$T$98      .dwtag  DW_TAG_typedef
     855                            .dwattr $C$DW$T$98, DW_AT_name("uint64_t")
     856                            .dwattr $C$DW$T$98, DW_AT_type(*$C$DW$T$15)
     857                            .dwattr $C$DW$T$98, DW_AT_language(DW_LANG_C)
     858                            .dwattr $C$DW$T$98, DW_AT_decl_file("C:/TI_CodeComposer/ccsv6/tools/compiler/ti-cgt-arm_15.12.
     859                            .dwattr $C$DW$T$98, DW_AT_decl_line(0x33)
     860                            .dwattr $C$DW$T$98, DW_AT_decl_column(0x20)
     861                    
     862                    $C$DW$T$99      .dwtag  DW_TAG_typedef
     863                            .dwattr $C$DW$T$99, DW_AT_name("uint_fast64_t")
     864                            .dwattr $C$DW$T$99, DW_AT_type(*$C$DW$T$98)
     865                            .dwattr $C$DW$T$99, DW_AT_language(DW_LANG_C)
TI ARM Assembler PC v15.12.1 Mon Nov 07 14:39:08 2016

Tools Copyright (c) 1996-2015 Texas Instruments Incorporated
Task_Trivial.asm                                                     PAGE   46

     866                            .dwattr $C$DW$T$99, DW_AT_decl_file("C:/TI_CodeComposer/ccsv6/tools/compiler/ti-cgt-arm_15.12.
     867                            .dwattr $C$DW$T$99, DW_AT_decl_line(0x4f)
     868                            .dwattr $C$DW$T$99, DW_AT_decl_column(0x16)
     869                    
     870                    $C$DW$T$100     .dwtag  DW_TAG_typedef
     871                            .dwattr $C$DW$T$100, DW_AT_name("uint_least64_t")
     872                            .dwattr $C$DW$T$100, DW_AT_type(*$C$DW$T$98)
     873                            .dwattr $C$DW$T$100, DW_AT_language(DW_LANG_C)
     874                            .dwattr $C$DW$T$100, DW_AT_decl_file("C:/TI_CodeComposer/ccsv6/tools/compiler/ti-cgt-arm_15.12
     875                            .dwattr $C$DW$T$100, DW_AT_decl_line(0x41)
     876                            .dwattr $C$DW$T$100, DW_AT_decl_column(0x16)
     877                    
     878                    $C$DW$T$101     .dwtag  DW_TAG_typedef
     879                            .dwattr $C$DW$T$101, DW_AT_name("uintmax_t")
     880                            .dwattr $C$DW$T$101, DW_AT_type(*$C$DW$T$15)
     881                            .dwattr $C$DW$T$101, DW_AT_language(DW_LANG_C)
     882                            .dwattr $C$DW$T$101, DW_AT_decl_file("C:/TI_CodeComposer/ccsv6/tools/compiler/ti-cgt-arm_15.12
     883                            .dwattr $C$DW$T$101, DW_AT_decl_line(0x57)
     884                            .dwattr $C$DW$T$101, DW_AT_decl_column(0x20)
     885                    
     886                    $C$DW$T$16      .dwtag  DW_TAG_base_type
     887                            .dwattr $C$DW$T$16, DW_AT_encoding(DW_ATE_float)
     888                            .dwattr $C$DW$T$16, DW_AT_name("float")
     889                            .dwattr $C$DW$T$16, DW_AT_byte_size(0x04)
     890                    
     891                    $C$DW$T$102     .dwtag  DW_TAG_typedef
     892                            .dwattr $C$DW$T$102, DW_AT_name("portFLOAT")
     893                            .dwattr $C$DW$T$102, DW_AT_type(*$C$DW$T$16)
     894                            .dwattr $C$DW$T$102, DW_AT_language(DW_LANG_C)
     895                            .dwattr $C$DW$T$102, DW_AT_decl_file("H:/EECS_388/TI_ARM_Projects/FreeRTOS823_LM3S1968_ADC_Mul
     896                            .dwattr $C$DW$T$102, DW_AT_decl_line(0x67)
     897                            .dwattr $C$DW$T$102, DW_AT_decl_column(0x10)
     898                    
     899                    $C$DW$T$17      .dwtag  DW_TAG_base_type
     900                            .dwattr $C$DW$T$17, DW_AT_encoding(DW_ATE_float)
     901                            .dwattr $C$DW$T$17, DW_AT_name("double")
     902                            .dwattr $C$DW$T$17, DW_AT_byte_size(0x08)
     903                    
     904                    $C$DW$T$18      .dwtag  DW_TAG_base_type
     905                            .dwattr $C$DW$T$18, DW_AT_encoding(DW_ATE_float)
     906                            .dwattr $C$DW$T$18, DW_AT_name("long double")
     907                            .dwattr $C$DW$T$18, DW_AT_byte_size(0x08)
     908                    
     909                    $C$DW$T$41      .dwtag  DW_TAG_const_type
     910                            .dwattr $C$DW$T$41, DW_AT_type(*$C$DW$T$6)
     911                    
     912                    $C$DW$T$42      .dwtag  DW_TAG_pointer_type
     913                            .dwattr $C$DW$T$42, DW_AT_type(*$C$DW$T$41)
     914                            .dwattr $C$DW$T$42, DW_AT_address_class(0x20)
     915                    
     916                    $C$DW$T$43      .dwtag  DW_TAG_const_type
     917                            .dwattr $C$DW$T$43, DW_AT_type(*$C$DW$T$42)
     918                    
     919                    
     920                    $C$DW$T$25      .dwtag  DW_TAG_structure_type
TI ARM Assembler PC v15.12.1 Mon Nov 07 14:39:08 2016

Tools Copyright (c) 1996-2015 Texas Instruments Incorporated
Task_Trivial.asm                                                     PAGE   47

     921                            .dwattr $C$DW$T$25, DW_AT_name("__va_list")
     922                            .dwattr $C$DW$T$25, DW_AT_byte_size(0x04)
     923                    $C$DW$32        .dwtag  DW_TAG_member
     924                            .dwattr $C$DW$32, DW_AT_type(*$C$DW$T$3)
     925                            .dwattr $C$DW$32, DW_AT_name("__ap")
     926                            .dwattr $C$DW$32, DW_AT_TI_symbol_name("__ap")
     927                            .dwattr $C$DW$32, DW_AT_data_member_location[DW_OP_plus_uconst 0x0]
     928                            .dwattr $C$DW$32, DW_AT_accessibility(DW_ACCESS_public)
     929                            .dwattr $C$DW$32, DW_AT_decl_file("C:/TI_CodeComposer/ccsv6/tools/compiler/ti-cgt-arm_15.12.1.
     930                            .dwattr $C$DW$32, DW_AT_decl_line(0x38)
     931                            .dwattr $C$DW$32, DW_AT_decl_column(0x0c)
     932                    
     933                            .dwattr $C$DW$T$25, DW_AT_decl_file("C:/TI_CodeComposer/ccsv6/tools/compiler/ti-cgt-arm_15.12.
     934                            .dwattr $C$DW$T$25, DW_AT_decl_line(0x37)
     935                            .dwattr $C$DW$T$25, DW_AT_decl_column(0x10)
     936                            .dwendtag $C$DW$T$25
     937                    
     938                    $C$DW$T$105     .dwtag  DW_TAG_typedef
     939                            .dwattr $C$DW$T$105, DW_AT_name("va_list")
     940                            .dwattr $C$DW$T$105, DW_AT_type(*$C$DW$T$25)
     941                            .dwattr $C$DW$T$105, DW_AT_language(DW_LANG_C)
     942                            .dwattr $C$DW$T$105, DW_AT_decl_file("C:/TI_CodeComposer/ccsv6/tools/compiler/ti-cgt-arm_15.12
     943                            .dwattr $C$DW$T$105, DW_AT_decl_line(0x39)
     944                            .dwattr $C$DW$T$105, DW_AT_decl_column(0x03)
     945                    
     946                    
     947                    $C$DW$T$31      .dwtag  DW_TAG_structure_type
     948                            .dwattr $C$DW$T$31, DW_AT_name("xLIST")
     949                            .dwattr $C$DW$T$31, DW_AT_byte_size(0x14)
     950                    $C$DW$33        .dwtag  DW_TAG_member
     951                            .dwattr $C$DW$33, DW_AT_type(*$C$DW$T$27)
     952                            .dwattr $C$DW$33, DW_AT_name("uxNumberOfItems")
     953                            .dwattr $C$DW$33, DW_AT_TI_symbol_name("uxNumberOfItems")
     954                            .dwattr $C$DW$33, DW_AT_data_member_location[DW_OP_plus_uconst 0x0]
     955                            .dwattr $C$DW$33, DW_AT_accessibility(DW_ACCESS_public)
     956                            .dwattr $C$DW$33, DW_AT_decl_file("H:\EECS_388\TI_ARM_Projects\FreeRTOS823_LM3S1968_ADC_MultMe
     957                            .dwattr $C$DW$33, DW_AT_decl_line(0xd0)
     958                            .dwattr $C$DW$33, DW_AT_decl_column(0x22)
     959                    
     960                    $C$DW$34        .dwtag  DW_TAG_member
     961                            .dwattr $C$DW$34, DW_AT_type(*$C$DW$T$29)
     962                            .dwattr $C$DW$34, DW_AT_name("pxIndex")
     963                            .dwattr $C$DW$34, DW_AT_TI_symbol_name("pxIndex")
     964                            .dwattr $C$DW$34, DW_AT_data_member_location[DW_OP_plus_uconst 0x4]
     965                            .dwattr $C$DW$34, DW_AT_accessibility(DW_ACCESS_public)
     966                            .dwattr $C$DW$34, DW_AT_decl_file("H:\EECS_388\TI_ARM_Projects\FreeRTOS823_LM3S1968_ADC_MultMe
     967                            .dwattr $C$DW$34, DW_AT_decl_line(0xd1)
     968                            .dwattr $C$DW$34, DW_AT_decl_column(0x23)
     969                    
     970                    $C$DW$35        .dwtag  DW_TAG_member
     971                            .dwattr $C$DW$35, DW_AT_type(*$C$DW$T$30)
     972                            .dwattr $C$DW$35, DW_AT_name("xListEnd")
     973                            .dwattr $C$DW$35, DW_AT_TI_symbol_name("xListEnd")
     974                            .dwattr $C$DW$35, DW_AT_data_member_location[DW_OP_plus_uconst 0x8]
     975                            .dwattr $C$DW$35, DW_AT_accessibility(DW_ACCESS_public)
TI ARM Assembler PC v15.12.1 Mon Nov 07 14:39:08 2016

Tools Copyright (c) 1996-2015 Texas Instruments Incorporated
Task_Trivial.asm                                                     PAGE   48

     976                            .dwattr $C$DW$35, DW_AT_decl_file("H:\EECS_388\TI_ARM_Projects\FreeRTOS823_LM3S1968_ADC_MultMe
     977                            .dwattr $C$DW$35, DW_AT_decl_line(0xd2)
     978                            .dwattr $C$DW$35, DW_AT_decl_column(0x11)
     979                    
     980                            .dwattr $C$DW$T$31, DW_AT_decl_file("H:\EECS_388\TI_ARM_Projects\FreeRTOS823_LM3S1968_ADC_Mult
     981                            .dwattr $C$DW$T$31, DW_AT_decl_line(0xcd)
     982                            .dwattr $C$DW$T$31, DW_AT_decl_column(0x10)
     983                            .dwendtag $C$DW$T$31
     984                    
     985                    $C$DW$T$106     .dwtag  DW_TAG_typedef
     986                            .dwattr $C$DW$T$106, DW_AT_name("List_t")
     987                            .dwattr $C$DW$T$106, DW_AT_type(*$C$DW$T$31)
     988                            .dwattr $C$DW$T$106, DW_AT_language(DW_LANG_C)
     989                            .dwattr $C$DW$T$106, DW_AT_decl_file("H:\EECS_388\TI_ARM_Projects\FreeRTOS823_LM3S1968_ADC_Mul
     990                            .dwattr $C$DW$T$106, DW_AT_decl_line(0xd4)
     991                            .dwattr $C$DW$T$106, DW_AT_decl_column(0x03)
     992                    
     993                    
     994                    $C$DW$T$34      .dwtag  DW_TAG_structure_type
     995                            .dwattr $C$DW$T$34, DW_AT_name("xLIST_ITEM")
     996                            .dwattr $C$DW$T$34, DW_AT_byte_size(0x14)
     997                    $C$DW$36        .dwtag  DW_TAG_member
     998                            .dwattr $C$DW$36, DW_AT_type(*$C$DW$T$32)
     999                            .dwattr $C$DW$36, DW_AT_name("xItemValue")
    1000                            .dwattr $C$DW$36, DW_AT_TI_symbol_name("xItemValue")
    1001                            .dwattr $C$DW$36, DW_AT_data_member_location[DW_OP_plus_uconst 0x0]
    1002                            .dwattr $C$DW$36, DW_AT_accessibility(DW_ACCESS_public)
    1003                            .dwattr $C$DW$36, DW_AT_decl_file("H:\EECS_388\TI_ARM_Projects\FreeRTOS823_LM3S1968_ADC_MultMe
    1004                            .dwattr $C$DW$36, DW_AT_decl_line(0xb8)
    1005                            .dwattr $C$DW$36, DW_AT_decl_column(0x21)
    1006                    
    1007                    $C$DW$37        .dwtag  DW_TAG_member
    1008                            .dwattr $C$DW$37, DW_AT_type(*$C$DW$T$33)
    1009                            .dwattr $C$DW$37, DW_AT_name("pxNext")
    1010                            .dwattr $C$DW$37, DW_AT_TI_symbol_name("pxNext")
    1011                            .dwattr $C$DW$37, DW_AT_data_member_location[DW_OP_plus_uconst 0x4]
    1012                            .dwattr $C$DW$37, DW_AT_accessibility(DW_ACCESS_public)
    1013                            .dwattr $C$DW$37, DW_AT_decl_file("H:\EECS_388\TI_ARM_Projects\FreeRTOS823_LM3S1968_ADC_MultMe
    1014                            .dwattr $C$DW$37, DW_AT_decl_line(0xb9)
    1015                            .dwattr $C$DW$37, DW_AT_decl_column(0x2a)
    1016                    
    1017                    $C$DW$38        .dwtag  DW_TAG_member
    1018                            .dwattr $C$DW$38, DW_AT_type(*$C$DW$T$33)
    1019                            .dwattr $C$DW$38, DW_AT_name("pxPrevious")
    1020                            .dwattr $C$DW$38, DW_AT_TI_symbol_name("pxPrevious")
    1021                            .dwattr $C$DW$38, DW_AT_data_member_location[DW_OP_plus_uconst 0x8]
    1022                            .dwattr $C$DW$38, DW_AT_accessibility(DW_ACCESS_public)
    1023                            .dwattr $C$DW$38, DW_AT_decl_file("H:\EECS_388\TI_ARM_Projects\FreeRTOS823_LM3S1968_ADC_MultMe
    1024                            .dwattr $C$DW$38, DW_AT_decl_line(0xba)
    1025                            .dwattr $C$DW$38, DW_AT_decl_column(0x2a)
    1026                    
    1027                    $C$DW$39        .dwtag  DW_TAG_member
    1028                            .dwattr $C$DW$39, DW_AT_type(*$C$DW$T$3)
    1029                            .dwattr $C$DW$39, DW_AT_name("pvOwner")
    1030                            .dwattr $C$DW$39, DW_AT_TI_symbol_name("pvOwner")
TI ARM Assembler PC v15.12.1 Mon Nov 07 14:39:08 2016

Tools Copyright (c) 1996-2015 Texas Instruments Incorporated
Task_Trivial.asm                                                     PAGE   49

    1031                            .dwattr $C$DW$39, DW_AT_data_member_location[DW_OP_plus_uconst 0xc]
    1032                            .dwattr $C$DW$39, DW_AT_accessibility(DW_ACCESS_public)
    1033                            .dwattr $C$DW$39, DW_AT_decl_file("H:\EECS_388\TI_ARM_Projects\FreeRTOS823_LM3S1968_ADC_MultMe
    1034                            .dwattr $C$DW$39, DW_AT_decl_line(0xbb)
    1035                            .dwattr $C$DW$39, DW_AT_decl_column(0x09)
    1036                    
    1037                    $C$DW$40        .dwtag  DW_TAG_member
    1038                            .dwattr $C$DW$40, DW_AT_type(*$C$DW$T$3)
    1039                            .dwattr $C$DW$40, DW_AT_name("pvContainer")
    1040                            .dwattr $C$DW$40, DW_AT_TI_symbol_name("pvContainer")
    1041                            .dwattr $C$DW$40, DW_AT_data_member_location[DW_OP_plus_uconst 0x10]
    1042                            .dwattr $C$DW$40, DW_AT_accessibility(DW_ACCESS_public)
    1043                            .dwattr $C$DW$40, DW_AT_decl_file("H:\EECS_388\TI_ARM_Projects\FreeRTOS823_LM3S1968_ADC_MultMe
    1044                            .dwattr $C$DW$40, DW_AT_decl_line(0xbc)
    1045                            .dwattr $C$DW$40, DW_AT_decl_column(0x1d)
    1046                    
    1047                            .dwattr $C$DW$T$34, DW_AT_decl_file("H:\EECS_388\TI_ARM_Projects\FreeRTOS823_LM3S1968_ADC_Mult
    1048                            .dwattr $C$DW$T$34, DW_AT_decl_line(0xb5)
    1049                            .dwattr $C$DW$T$34, DW_AT_decl_column(0x08)
    1050                            .dwendtag $C$DW$T$34
    1051                    
    1052                    $C$DW$T$28      .dwtag  DW_TAG_typedef
    1053                            .dwattr $C$DW$T$28, DW_AT_name("ListItem_t")
    1054                            .dwattr $C$DW$T$28, DW_AT_type(*$C$DW$T$34)
    1055                            .dwattr $C$DW$T$28, DW_AT_language(DW_LANG_C)
    1056                            .dwattr $C$DW$T$28, DW_AT_decl_file("H:\EECS_388\TI_ARM_Projects\FreeRTOS823_LM3S1968_ADC_Mult
    1057                            .dwattr $C$DW$T$28, DW_AT_decl_line(0xbf)
    1058                            .dwattr $C$DW$T$28, DW_AT_decl_column(0x1b)
    1059                    
    1060                    $C$DW$T$29      .dwtag  DW_TAG_pointer_type
    1061                            .dwattr $C$DW$T$29, DW_AT_type(*$C$DW$T$28)
    1062                            .dwattr $C$DW$T$29, DW_AT_address_class(0x20)
    1063                    
    1064                    $C$DW$T$33      .dwtag  DW_TAG_pointer_type
    1065                            .dwattr $C$DW$T$33, DW_AT_type(*$C$DW$T$34)
    1066                            .dwattr $C$DW$T$33, DW_AT_address_class(0x20)
    1067                    
    1068                    
    1069                    $C$DW$T$35      .dwtag  DW_TAG_structure_type
    1070                            .dwattr $C$DW$T$35, DW_AT_name("xMEMORY_REGION")
    1071                            .dwattr $C$DW$T$35, DW_AT_byte_size(0x0c)
    1072                    $C$DW$41        .dwtag  DW_TAG_member
    1073                            .dwattr $C$DW$41, DW_AT_type(*$C$DW$T$3)
    1074                            .dwattr $C$DW$41, DW_AT_name("pvBaseAddress")
    1075                            .dwattr $C$DW$41, DW_AT_TI_symbol_name("pvBaseAddress")
    1076                            .dwattr $C$DW$41, DW_AT_data_member_location[DW_OP_plus_uconst 0x0]
    1077                            .dwattr $C$DW$41, DW_AT_accessibility(DW_ACCESS_public)
    1078                            .dwattr $C$DW$41, DW_AT_decl_file("H:/EECS_388/TI_ARM_Projects/FreeRTOS823_LM3S1968_ADC_MultMe
    1079                            .dwattr $C$DW$41, DW_AT_decl_line(0x91)
    1080                            .dwattr $C$DW$41, DW_AT_decl_column(0x08)
    1081                    
    1082                    $C$DW$42        .dwtag  DW_TAG_member
    1083                            .dwattr $C$DW$42, DW_AT_type(*$C$DW$T$26)
    1084                            .dwattr $C$DW$42, DW_AT_name("ulLengthInBytes")
    1085                            .dwattr $C$DW$42, DW_AT_TI_symbol_name("ulLengthInBytes")
TI ARM Assembler PC v15.12.1 Mon Nov 07 14:39:08 2016

Tools Copyright (c) 1996-2015 Texas Instruments Incorporated
Task_Trivial.asm                                                     PAGE   50

    1086                            .dwattr $C$DW$42, DW_AT_data_member_location[DW_OP_plus_uconst 0x4]
    1087                            .dwattr $C$DW$42, DW_AT_accessibility(DW_ACCESS_public)
    1088                            .dwattr $C$DW$42, DW_AT_decl_file("H:/EECS_388/TI_ARM_Projects/FreeRTOS823_LM3S1968_ADC_MultMe
    1089                            .dwattr $C$DW$42, DW_AT_decl_line(0x92)
    1090                            .dwattr $C$DW$42, DW_AT_decl_column(0x0b)
    1091                    
    1092                    $C$DW$43        .dwtag  DW_TAG_member
    1093                            .dwattr $C$DW$43, DW_AT_type(*$C$DW$T$26)
    1094                            .dwattr $C$DW$43, DW_AT_name("ulParameters")
    1095                            .dwattr $C$DW$43, DW_AT_TI_symbol_name("ulParameters")
    1096                            .dwattr $C$DW$43, DW_AT_data_member_location[DW_OP_plus_uconst 0x8]
    1097                            .dwattr $C$DW$43, DW_AT_accessibility(DW_ACCESS_public)
    1098                            .dwattr $C$DW$43, DW_AT_decl_file("H:/EECS_388/TI_ARM_Projects/FreeRTOS823_LM3S1968_ADC_MultMe
    1099                            .dwattr $C$DW$43, DW_AT_decl_line(0x93)
    1100                            .dwattr $C$DW$43, DW_AT_decl_column(0x0b)
    1101                    
    1102                            .dwattr $C$DW$T$35, DW_AT_decl_file("H:/EECS_388/TI_ARM_Projects/FreeRTOS823_LM3S1968_ADC_Mult
    1103                            .dwattr $C$DW$T$35, DW_AT_decl_line(0x8f)
    1104                            .dwattr $C$DW$T$35, DW_AT_decl_column(0x10)
    1105                            .dwendtag $C$DW$T$35
    1106                    
    1107                    $C$DW$T$47      .dwtag  DW_TAG_typedef
    1108                            .dwattr $C$DW$T$47, DW_AT_name("MemoryRegion_t")
    1109                            .dwattr $C$DW$T$47, DW_AT_type(*$C$DW$T$35)
    1110                            .dwattr $C$DW$T$47, DW_AT_language(DW_LANG_C)
    1111                            .dwattr $C$DW$T$47, DW_AT_decl_file("H:/EECS_388/TI_ARM_Projects/FreeRTOS823_LM3S1968_ADC_Mult
    1112                            .dwattr $C$DW$T$47, DW_AT_decl_line(0x94)
    1113                            .dwattr $C$DW$T$47, DW_AT_decl_column(0x03)
    1114                    
    1115                    
    1116                    $C$DW$T$48      .dwtag  DW_TAG_array_type
    1117                            .dwattr $C$DW$T$48, DW_AT_type(*$C$DW$T$47)
    1118                            .dwattr $C$DW$T$48, DW_AT_language(DW_LANG_C)
    1119                            .dwattr $C$DW$T$48, DW_AT_byte_size(0x0c)
    1120                    $C$DW$44        .dwtag  DW_TAG_subrange_type
    1121                            .dwattr $C$DW$44, DW_AT_upper_bound(0x00)
    1122                    
    1123                            .dwendtag $C$DW$T$48
    1124                    
    1125                    
    1126                    $C$DW$T$36      .dwtag  DW_TAG_structure_type
    1127                            .dwattr $C$DW$T$36, DW_AT_name("xMINI_LIST_ITEM")
    1128                            .dwattr $C$DW$T$36, DW_AT_byte_size(0x0c)
    1129                    $C$DW$45        .dwtag  DW_TAG_member
    1130                            .dwattr $C$DW$45, DW_AT_type(*$C$DW$T$32)
    1131                            .dwattr $C$DW$45, DW_AT_name("xItemValue")
    1132                            .dwattr $C$DW$45, DW_AT_TI_symbol_name("xItemValue")
    1133                            .dwattr $C$DW$45, DW_AT_data_member_location[DW_OP_plus_uconst 0x0]
    1134                            .dwattr $C$DW$45, DW_AT_accessibility(DW_ACCESS_public)
    1135                            .dwattr $C$DW$45, DW_AT_decl_file("H:\EECS_388\TI_ARM_Projects\FreeRTOS823_LM3S1968_ADC_MultMe
    1136                            .dwattr $C$DW$45, DW_AT_decl_line(0xc4)
    1137                            .dwattr $C$DW$45, DW_AT_decl_column(0x21)
    1138                    
    1139                    $C$DW$46        .dwtag  DW_TAG_member
    1140                            .dwattr $C$DW$46, DW_AT_type(*$C$DW$T$33)
TI ARM Assembler PC v15.12.1 Mon Nov 07 14:39:08 2016

Tools Copyright (c) 1996-2015 Texas Instruments Incorporated
Task_Trivial.asm                                                     PAGE   51

    1141                            .dwattr $C$DW$46, DW_AT_name("pxNext")
    1142                            .dwattr $C$DW$46, DW_AT_TI_symbol_name("pxNext")
    1143                            .dwattr $C$DW$46, DW_AT_data_member_location[DW_OP_plus_uconst 0x4]
    1144                            .dwattr $C$DW$46, DW_AT_accessibility(DW_ACCESS_public)
    1145                            .dwattr $C$DW$46, DW_AT_decl_file("H:\EECS_388\TI_ARM_Projects\FreeRTOS823_LM3S1968_ADC_MultMe
    1146                            .dwattr $C$DW$46, DW_AT_decl_line(0xc5)
    1147                            .dwattr $C$DW$46, DW_AT_decl_column(0x2a)
    1148                    
    1149                    $C$DW$47        .dwtag  DW_TAG_member
    1150                            .dwattr $C$DW$47, DW_AT_type(*$C$DW$T$33)
    1151                            .dwattr $C$DW$47, DW_AT_name("pxPrevious")
    1152                            .dwattr $C$DW$47, DW_AT_TI_symbol_name("pxPrevious")
    1153                            .dwattr $C$DW$47, DW_AT_data_member_location[DW_OP_plus_uconst 0x8]
    1154                            .dwattr $C$DW$47, DW_AT_accessibility(DW_ACCESS_public)
    1155                            .dwattr $C$DW$47, DW_AT_decl_file("H:\EECS_388\TI_ARM_Projects\FreeRTOS823_LM3S1968_ADC_MultMe
    1156                            .dwattr $C$DW$47, DW_AT_decl_line(0xc6)
    1157                            .dwattr $C$DW$47, DW_AT_decl_column(0x2a)
    1158                    
    1159                            .dwattr $C$DW$T$36, DW_AT_decl_file("H:\EECS_388\TI_ARM_Projects\FreeRTOS823_LM3S1968_ADC_Mult
    1160                            .dwattr $C$DW$T$36, DW_AT_decl_line(0xc1)
    1161                            .dwattr $C$DW$T$36, DW_AT_decl_column(0x08)
    1162                            .dwendtag $C$DW$T$36
    1163                    
    1164                    $C$DW$T$30      .dwtag  DW_TAG_typedef
    1165                            .dwattr $C$DW$T$30, DW_AT_name("MiniListItem_t")
    1166                            .dwattr $C$DW$T$30, DW_AT_type(*$C$DW$T$36)
    1167                            .dwattr $C$DW$T$30, DW_AT_language(DW_LANG_C)
    1168                            .dwattr $C$DW$T$30, DW_AT_decl_file("H:\EECS_388\TI_ARM_Projects\FreeRTOS823_LM3S1968_ADC_Mult
    1169                            .dwattr $C$DW$T$30, DW_AT_decl_line(0xc8)
    1170                            .dwattr $C$DW$T$30, DW_AT_decl_column(0x20)
    1171                    
    1172                    
    1173                    $C$DW$T$49      .dwtag  DW_TAG_structure_type
    1174                            .dwattr $C$DW$T$49, DW_AT_name("xTASK_PARAMETERS")
    1175                            .dwattr $C$DW$T$49, DW_AT_byte_size(0x24)
    1176                    $C$DW$48        .dwtag  DW_TAG_member
    1177                            .dwattr $C$DW$48, DW_AT_type(*$C$DW$T$39)
    1178                            .dwattr $C$DW$48, DW_AT_name("pvTaskCode")
    1179                            .dwattr $C$DW$48, DW_AT_TI_symbol_name("pvTaskCode")
    1180                            .dwattr $C$DW$48, DW_AT_data_member_location[DW_OP_plus_uconst 0x0]
    1181                            .dwattr $C$DW$48, DW_AT_accessibility(DW_ACCESS_public)
    1182                            .dwattr $C$DW$48, DW_AT_decl_file("H:/EECS_388/TI_ARM_Projects/FreeRTOS823_LM3S1968_ADC_MultMe
    1183                            .dwattr $C$DW$48, DW_AT_decl_line(0x9b)
    1184                            .dwattr $C$DW$48, DW_AT_decl_column(0x11)
    1185                    
    1186                    $C$DW$49        .dwtag  DW_TAG_member
    1187                            .dwattr $C$DW$49, DW_AT_type(*$C$DW$T$43)
    1188                            .dwattr $C$DW$49, DW_AT_name("pcName")
    1189                            .dwattr $C$DW$49, DW_AT_TI_symbol_name("pcName")
    1190                            .dwattr $C$DW$49, DW_AT_data_member_location[DW_OP_plus_uconst 0x4]
    1191                            .dwattr $C$DW$49, DW_AT_accessibility(DW_ACCESS_public)
    1192                            .dwattr $C$DW$49, DW_AT_decl_file("H:/EECS_388/TI_ARM_Projects/FreeRTOS823_LM3S1968_ADC_MultMe
    1193                            .dwattr $C$DW$49, DW_AT_decl_line(0x9c)
    1194                            .dwattr $C$DW$49, DW_AT_decl_column(0x15)
    1195                    
TI ARM Assembler PC v15.12.1 Mon Nov 07 14:39:08 2016

Tools Copyright (c) 1996-2015 Texas Instruments Incorporated
Task_Trivial.asm                                                     PAGE   52

    1196                    $C$DW$50        .dwtag  DW_TAG_member
    1197                            .dwattr $C$DW$50, DW_AT_type(*$C$DW$T$44)
    1198                            .dwattr $C$DW$50, DW_AT_name("usStackDepth")
    1199                            .dwattr $C$DW$50, DW_AT_TI_symbol_name("usStackDepth")
    1200                            .dwattr $C$DW$50, DW_AT_data_member_location[DW_OP_plus_uconst 0x8]
    1201                            .dwattr $C$DW$50, DW_AT_accessibility(DW_ACCESS_public)
    1202                            .dwattr $C$DW$50, DW_AT_decl_file("H:/EECS_388/TI_ARM_Projects/FreeRTOS823_LM3S1968_ADC_MultMe
    1203                            .dwattr $C$DW$50, DW_AT_decl_line(0x9d)
    1204                            .dwattr $C$DW$50, DW_AT_decl_column(0x0b)
    1205                    
    1206                    $C$DW$51        .dwtag  DW_TAG_member
    1207                            .dwattr $C$DW$51, DW_AT_type(*$C$DW$T$3)
    1208                            .dwattr $C$DW$51, DW_AT_name("pvParameters")
    1209                            .dwattr $C$DW$51, DW_AT_TI_symbol_name("pvParameters")
    1210                            .dwattr $C$DW$51, DW_AT_data_member_location[DW_OP_plus_uconst 0xc]
    1211                            .dwattr $C$DW$51, DW_AT_accessibility(DW_ACCESS_public)
    1212                            .dwattr $C$DW$51, DW_AT_decl_file("H:/EECS_388/TI_ARM_Projects/FreeRTOS823_LM3S1968_ADC_MultMe
    1213                            .dwattr $C$DW$51, DW_AT_decl_line(0x9e)
    1214                            .dwattr $C$DW$51, DW_AT_decl_column(0x08)
    1215                    
    1216                    $C$DW$52        .dwtag  DW_TAG_member
    1217                            .dwattr $C$DW$52, DW_AT_type(*$C$DW$T$27)
    1218                            .dwattr $C$DW$52, DW_AT_name("uxPriority")
    1219                            .dwattr $C$DW$52, DW_AT_TI_symbol_name("uxPriority")
    1220                            .dwattr $C$DW$52, DW_AT_data_member_location[DW_OP_plus_uconst 0x10]
    1221                            .dwattr $C$DW$52, DW_AT_accessibility(DW_ACCESS_public)
    1222                            .dwattr $C$DW$52, DW_AT_decl_file("H:/EECS_388/TI_ARM_Projects/FreeRTOS823_LM3S1968_ADC_MultMe
    1223                            .dwattr $C$DW$52, DW_AT_decl_line(0x9f)
    1224                            .dwattr $C$DW$52, DW_AT_decl_column(0x0e)
    1225                    
    1226                    $C$DW$53        .dwtag  DW_TAG_member
    1227                            .dwattr $C$DW$53, DW_AT_type(*$C$DW$T$46)
    1228                            .dwattr $C$DW$53, DW_AT_name("puxStackBuffer")
    1229                            .dwattr $C$DW$53, DW_AT_TI_symbol_name("puxStackBuffer")
    1230                            .dwattr $C$DW$53, DW_AT_data_member_location[DW_OP_plus_uconst 0x14]
    1231                            .dwattr $C$DW$53, DW_AT_accessibility(DW_ACCESS_public)
    1232                            .dwattr $C$DW$53, DW_AT_decl_file("H:/EECS_388/TI_ARM_Projects/FreeRTOS823_LM3S1968_ADC_MultMe
    1233                            .dwattr $C$DW$53, DW_AT_decl_line(0xa0)
    1234                            .dwattr $C$DW$53, DW_AT_decl_column(0x0f)
    1235                    
    1236                    $C$DW$54        .dwtag  DW_TAG_member
    1237                            .dwattr $C$DW$54, DW_AT_type(*$C$DW$T$48)
    1238                            .dwattr $C$DW$54, DW_AT_name("xRegions")
    1239                            .dwattr $C$DW$54, DW_AT_TI_symbol_name("xRegions")
    1240                            .dwattr $C$DW$54, DW_AT_data_member_location[DW_OP_plus_uconst 0x18]
    1241                            .dwattr $C$DW$54, DW_AT_accessibility(DW_ACCESS_public)
    1242                            .dwattr $C$DW$54, DW_AT_decl_file("H:/EECS_388/TI_ARM_Projects/FreeRTOS823_LM3S1968_ADC_MultMe
    1243                            .dwattr $C$DW$54, DW_AT_decl_line(0xa1)
    1244                            .dwattr $C$DW$54, DW_AT_decl_column(0x11)
    1245                    
    1246                            .dwattr $C$DW$T$49, DW_AT_decl_file("H:/EECS_388/TI_ARM_Projects/FreeRTOS823_LM3S1968_ADC_Mult
    1247                            .dwattr $C$DW$T$49, DW_AT_decl_line(0x99)
    1248                            .dwattr $C$DW$T$49, DW_AT_decl_column(0x10)
    1249                            .dwendtag $C$DW$T$49
    1250                    
TI ARM Assembler PC v15.12.1 Mon Nov 07 14:39:08 2016

Tools Copyright (c) 1996-2015 Texas Instruments Incorporated
Task_Trivial.asm                                                     PAGE   53

    1251                    $C$DW$T$107     .dwtag  DW_TAG_typedef
    1252                            .dwattr $C$DW$T$107, DW_AT_name("TaskParameters_t")
    1253                            .dwattr $C$DW$T$107, DW_AT_type(*$C$DW$T$49)
    1254                            .dwattr $C$DW$T$107, DW_AT_language(DW_LANG_C)
    1255                            .dwattr $C$DW$T$107, DW_AT_decl_file("H:/EECS_388/TI_ARM_Projects/FreeRTOS823_LM3S1968_ADC_Mul
    1256                            .dwattr $C$DW$T$107, DW_AT_decl_line(0xa2)
    1257                            .dwattr $C$DW$T$107, DW_AT_decl_column(0x03)
    1258                    
    1259                    
    1260                    $C$DW$T$53      .dwtag  DW_TAG_structure_type
    1261                            .dwattr $C$DW$T$53, DW_AT_name("xTASK_STATUS")
    1262                            .dwattr $C$DW$T$53, DW_AT_byte_size(0x20)
    1263                    $C$DW$55        .dwtag  DW_TAG_member
    1264                            .dwattr $C$DW$55, DW_AT_type(*$C$DW$T$50)
    1265                            .dwattr $C$DW$55, DW_AT_name("xHandle")
    1266                            .dwattr $C$DW$55, DW_AT_TI_symbol_name("xHandle")
    1267                            .dwattr $C$DW$55, DW_AT_data_member_location[DW_OP_plus_uconst 0x0]
    1268                            .dwattr $C$DW$55, DW_AT_accessibility(DW_ACCESS_public)
    1269                            .dwattr $C$DW$55, DW_AT_decl_file("H:/EECS_388/TI_ARM_Projects/FreeRTOS823_LM3S1968_ADC_MultMe
    1270                            .dwattr $C$DW$55, DW_AT_decl_line(0xa8)
    1271                            .dwattr $C$DW$55, DW_AT_decl_column(0x0f)
    1272                    
    1273                    $C$DW$56        .dwtag  DW_TAG_member
    1274                            .dwattr $C$DW$56, DW_AT_type(*$C$DW$T$42)
    1275                            .dwattr $C$DW$56, DW_AT_name("pcTaskName")
    1276                            .dwattr $C$DW$56, DW_AT_TI_symbol_name("pcTaskName")
    1277                            .dwattr $C$DW$56, DW_AT_data_member_location[DW_OP_plus_uconst 0x4]
    1278                            .dwattr $C$DW$56, DW_AT_accessibility(DW_ACCESS_public)
    1279                            .dwattr $C$DW$56, DW_AT_decl_file("H:/EECS_388/TI_ARM_Projects/FreeRTOS823_LM3S1968_ADC_MultMe
    1280                            .dwattr $C$DW$56, DW_AT_decl_line(0xa9)
    1281                            .dwattr $C$DW$56, DW_AT_decl_column(0x0e)
    1282                    
    1283                    $C$DW$57        .dwtag  DW_TAG_member
    1284                            .dwattr $C$DW$57, DW_AT_type(*$C$DW$T$27)
    1285                            .dwattr $C$DW$57, DW_AT_name("xTaskNumber")
    1286                            .dwattr $C$DW$57, DW_AT_TI_symbol_name("xTaskNumber")
    1287                            .dwattr $C$DW$57, DW_AT_data_member_location[DW_OP_plus_uconst 0x8]
    1288                            .dwattr $C$DW$57, DW_AT_accessibility(DW_ACCESS_public)
    1289                            .dwattr $C$DW$57, DW_AT_decl_file("H:/EECS_388/TI_ARM_Projects/FreeRTOS823_LM3S1968_ADC_MultMe
    1290                            .dwattr $C$DW$57, DW_AT_decl_line(0xaa)
    1291                            .dwattr $C$DW$57, DW_AT_decl_column(0x0e)
    1292                    
    1293                    $C$DW$58        .dwtag  DW_TAG_member
    1294                            .dwattr $C$DW$58, DW_AT_type(*$C$DW$T$52)
    1295                            .dwattr $C$DW$58, DW_AT_name("eCurrentState")
    1296                            .dwattr $C$DW$58, DW_AT_TI_symbol_name("eCurrentState")
    1297                            .dwattr $C$DW$58, DW_AT_data_member_location[DW_OP_plus_uconst 0xc]
    1298                            .dwattr $C$DW$58, DW_AT_accessibility(DW_ACCESS_public)
    1299                            .dwattr $C$DW$58, DW_AT_decl_file("H:/EECS_388/TI_ARM_Projects/FreeRTOS823_LM3S1968_ADC_MultMe
    1300                            .dwattr $C$DW$58, DW_AT_decl_line(0xab)
    1301                            .dwattr $C$DW$58, DW_AT_decl_column(0x0d)
    1302                    
    1303                    $C$DW$59        .dwtag  DW_TAG_member
    1304                            .dwattr $C$DW$59, DW_AT_type(*$C$DW$T$27)
    1305                            .dwattr $C$DW$59, DW_AT_name("uxCurrentPriority")
TI ARM Assembler PC v15.12.1 Mon Nov 07 14:39:08 2016

Tools Copyright (c) 1996-2015 Texas Instruments Incorporated
Task_Trivial.asm                                                     PAGE   54

    1306                            .dwattr $C$DW$59, DW_AT_TI_symbol_name("uxCurrentPriority")
    1307                            .dwattr $C$DW$59, DW_AT_data_member_location[DW_OP_plus_uconst 0x10]
    1308                            .dwattr $C$DW$59, DW_AT_accessibility(DW_ACCESS_public)
    1309                            .dwattr $C$DW$59, DW_AT_decl_file("H:/EECS_388/TI_ARM_Projects/FreeRTOS823_LM3S1968_ADC_MultMe
    1310                            .dwattr $C$DW$59, DW_AT_decl_line(0xac)
    1311                            .dwattr $C$DW$59, DW_AT_decl_column(0x0e)
    1312                    
    1313                    $C$DW$60        .dwtag  DW_TAG_member
    1314                            .dwattr $C$DW$60, DW_AT_type(*$C$DW$T$27)
    1315                            .dwattr $C$DW$60, DW_AT_name("uxBasePriority")
    1316                            .dwattr $C$DW$60, DW_AT_TI_symbol_name("uxBasePriority")
    1317                            .dwattr $C$DW$60, DW_AT_data_member_location[DW_OP_plus_uconst 0x14]
    1318                            .dwattr $C$DW$60, DW_AT_accessibility(DW_ACCESS_public)
    1319                            .dwattr $C$DW$60, DW_AT_decl_file("H:/EECS_388/TI_ARM_Projects/FreeRTOS823_LM3S1968_ADC_MultMe
    1320                            .dwattr $C$DW$60, DW_AT_decl_line(0xad)
    1321                            .dwattr $C$DW$60, DW_AT_decl_column(0x0e)
    1322                    
    1323                    $C$DW$61        .dwtag  DW_TAG_member
    1324                            .dwattr $C$DW$61, DW_AT_type(*$C$DW$T$26)
    1325                            .dwattr $C$DW$61, DW_AT_name("ulRunTimeCounter")
    1326                            .dwattr $C$DW$61, DW_AT_TI_symbol_name("ulRunTimeCounter")
    1327                            .dwattr $C$DW$61, DW_AT_data_member_location[DW_OP_plus_uconst 0x18]
    1328                            .dwattr $C$DW$61, DW_AT_accessibility(DW_ACCESS_public)
    1329                            .dwattr $C$DW$61, DW_AT_decl_file("H:/EECS_388/TI_ARM_Projects/FreeRTOS823_LM3S1968_ADC_MultMe
    1330                            .dwattr $C$DW$61, DW_AT_decl_line(0xae)
    1331                            .dwattr $C$DW$61, DW_AT_decl_column(0x0b)
    1332                    
    1333                    $C$DW$62        .dwtag  DW_TAG_member
    1334                            .dwattr $C$DW$62, DW_AT_type(*$C$DW$T$44)
    1335                            .dwattr $C$DW$62, DW_AT_name("usStackHighWaterMark")
    1336                            .dwattr $C$DW$62, DW_AT_TI_symbol_name("usStackHighWaterMark")
    1337                            .dwattr $C$DW$62, DW_AT_data_member_location[DW_OP_plus_uconst 0x1c]
    1338                            .dwattr $C$DW$62, DW_AT_accessibility(DW_ACCESS_public)
    1339                            .dwattr $C$DW$62, DW_AT_decl_file("H:/EECS_388/TI_ARM_Projects/FreeRTOS823_LM3S1968_ADC_MultMe
    1340                            .dwattr $C$DW$62, DW_AT_decl_line(0xaf)
    1341                            .dwattr $C$DW$62, DW_AT_decl_column(0x0b)
    1342                    
    1343                            .dwattr $C$DW$T$53, DW_AT_decl_file("H:/EECS_388/TI_ARM_Projects/FreeRTOS823_LM3S1968_ADC_Mult
    1344                            .dwattr $C$DW$T$53, DW_AT_decl_line(0xa6)
    1345                            .dwattr $C$DW$T$53, DW_AT_decl_column(0x10)
    1346                            .dwendtag $C$DW$T$53
    1347                    
    1348                    $C$DW$T$108     .dwtag  DW_TAG_typedef
    1349                            .dwattr $C$DW$T$108, DW_AT_name("TaskStatus_t")
    1350                            .dwattr $C$DW$T$108, DW_AT_type(*$C$DW$T$53)
    1351                            .dwattr $C$DW$T$108, DW_AT_language(DW_LANG_C)
    1352                            .dwattr $C$DW$T$108, DW_AT_decl_file("H:/EECS_388/TI_ARM_Projects/FreeRTOS823_LM3S1968_ADC_Mul
    1353                            .dwattr $C$DW$T$108, DW_AT_decl_line(0xb0)
    1354                            .dwattr $C$DW$T$108, DW_AT_decl_column(0x03)
    1355                    
    1356                    
    1357                    $C$DW$T$56      .dwtag  DW_TAG_structure_type
    1358                            .dwattr $C$DW$T$56, DW_AT_name("xTIME_OUT")
    1359                            .dwattr $C$DW$T$56, DW_AT_byte_size(0x08)
    1360                    $C$DW$63        .dwtag  DW_TAG_member
TI ARM Assembler PC v15.12.1 Mon Nov 07 14:39:08 2016

Tools Copyright (c) 1996-2015 Texas Instruments Incorporated
Task_Trivial.asm                                                     PAGE   55

    1361                            .dwattr $C$DW$63, DW_AT_type(*$C$DW$T$55)
    1362                            .dwattr $C$DW$63, DW_AT_name("xOverflowCount")
    1363                            .dwattr $C$DW$63, DW_AT_TI_symbol_name("xOverflowCount")
    1364                            .dwattr $C$DW$63, DW_AT_data_member_location[DW_OP_plus_uconst 0x0]
    1365                            .dwattr $C$DW$63, DW_AT_accessibility(DW_ACCESS_public)
    1366                            .dwattr $C$DW$63, DW_AT_decl_file("H:/EECS_388/TI_ARM_Projects/FreeRTOS823_LM3S1968_ADC_MultMe
    1367                            .dwattr $C$DW$63, DW_AT_decl_line(0x88)
    1368                            .dwattr $C$DW$63, DW_AT_decl_column(0x0d)
    1369                    
    1370                    $C$DW$64        .dwtag  DW_TAG_member
    1371                            .dwattr $C$DW$64, DW_AT_type(*$C$DW$T$32)
    1372                            .dwattr $C$DW$64, DW_AT_name("xTimeOnEntering")
    1373                            .dwattr $C$DW$64, DW_AT_TI_symbol_name("xTimeOnEntering")
    1374                            .dwattr $C$DW$64, DW_AT_data_member_location[DW_OP_plus_uconst 0x4]
    1375                            .dwattr $C$DW$64, DW_AT_accessibility(DW_ACCESS_public)
    1376                            .dwattr $C$DW$64, DW_AT_decl_file("H:/EECS_388/TI_ARM_Projects/FreeRTOS823_LM3S1968_ADC_MultMe
    1377                            .dwattr $C$DW$64, DW_AT_decl_line(0x89)
    1378                            .dwattr $C$DW$64, DW_AT_decl_column(0x0d)
    1379                    
    1380                            .dwattr $C$DW$T$56, DW_AT_decl_file("H:/EECS_388/TI_ARM_Projects/FreeRTOS823_LM3S1968_ADC_Mult
    1381                            .dwattr $C$DW$T$56, DW_AT_decl_line(0x86)
    1382                            .dwattr $C$DW$T$56, DW_AT_decl_column(0x10)
    1383                            .dwendtag $C$DW$T$56
    1384                    
    1385                    $C$DW$T$109     .dwtag  DW_TAG_typedef
    1386                            .dwattr $C$DW$T$109, DW_AT_name("TimeOut_t")
    1387                            .dwattr $C$DW$T$109, DW_AT_type(*$C$DW$T$56)
    1388                            .dwattr $C$DW$T$109, DW_AT_language(DW_LANG_C)
    1389                            .dwattr $C$DW$T$109, DW_AT_decl_file("H:/EECS_388/TI_ARM_Projects/FreeRTOS823_LM3S1968_ADC_Mul
    1390                            .dwattr $C$DW$T$109, DW_AT_decl_line(0x8a)
    1391                            .dwattr $C$DW$T$109, DW_AT_decl_column(0x03)
    1392                    
    1393                            .dwattr $C$DW$CU, DW_AT_language(DW_LANG_C)
    1394                    
    1395                    ;***************************************************************
    1396                    ;* DWARF CIE ENTRIES                                           *
    1397                    ;***************************************************************
    1398                    
    1399                    $C$DW$CIE       .dwcie 14
    1400                            .dwcfi  cfa_register, 13
    1401                            .dwcfi  cfa_offset, 0
    1402                            .dwcfi  undefined, 0
    1403                            .dwcfi  undefined, 1
    1404                            .dwcfi  undefined, 2
    1405                            .dwcfi  undefined, 3
    1406                            .dwcfi  same_value, 4
    1407                            .dwcfi  same_value, 5
    1408                            .dwcfi  same_value, 6
    1409                            .dwcfi  same_value, 7
    1410                            .dwcfi  same_value, 8
    1411                            .dwcfi  same_value, 9
    1412                            .dwcfi  same_value, 10
    1413                            .dwcfi  same_value, 11
    1414                            .dwcfi  undefined, 12
    1415                            .dwcfi  undefined, 13
TI ARM Assembler PC v15.12.1 Mon Nov 07 14:39:08 2016

Tools Copyright (c) 1996-2015 Texas Instruments Incorporated
Task_Trivial.asm                                                     PAGE   56

    1416                            .dwcfi  undefined, 14
    1417                            .dwcfi  undefined, 14
    1418                            .dwcfi  undefined, 7
    1419                            .dwendentry
    1420                            .dwendtag $C$DW$CU
    1421                    

--------------------------
Thumb2 Statistics
--------------------------
Number of Thumb2 ins converted to Thumb = 0 (0%)
Number of Thumb ins in input = 4 (80%)
Number of Thumb2 ins encoded as Thumb2 = 1 (100%)
Number of Thumb2 ins converted to 2 OPND Thumb = 0


No Assembly Errors, No Assembly Warnings
